ccopy_reg
_reconstructor
p0
(cpinyinSplit.pinyinSplit
Trie
p1
c__builtin__
object
p2
Ntp3
Rp4
(dp5
S'root'
p6
g0
(cpinyinSplit.pinyinSplit
TrieNode
p7
g2
Ntp8
Rp9
(dp10
S'children'
p11
(dp12
S'\xc7'
p13
g0
(g7
g2
Ntp14
Rp15
(dp16
g11
(dp17
S'\xb9'
p18
g0
(g7
g2
Ntp19
Rp20
(dp21
g11
(dp22
S'g'
p23
g0
(g7
g2
Ntp24
Rp25
(dp26
g11
(dp27
sS'value'
p28
S'\xc7\xb9g'
p29
sbssg28
Nsbssg28
NsbsS'a'
p30
g0
(g7
g2
Ntp31
Rp32
(dp33
g11
(dp34
S'i'
p35
g0
(g7
g2
Ntp36
Rp37
(dp38
g11
(dp39
sg28
S'ai'
p40
sbsS'o'
p41
g0
(g7
g2
Ntp42
Rp43
(dp44
g11
(dp45
sg28
S'ao'
p46
sbsS'n'
p47
g0
(g7
g2
Ntp48
Rp49
(dp50
g11
(dp51
g23
g0
(g7
g2
Ntp52
Rp53
(dp54
g11
(dp55
sg28
S'ang'
p56
sbssg28
S'an'
p57
sbssg28
g30
sbsS'c'
p58
g0
(g7
g2
Ntp59
Rp60
(dp61
g11
(dp62
g30
g0
(g7
g2
Ntp63
Rp64
(dp65
g11
(dp66
g35
g0
(g7
g2
Ntp67
Rp68
(dp69
g11
(dp70
sg28
S'cai'
p71
sbsg41
g0
(g7
g2
Ntp72
Rp73
(dp74
g11
(dp75
sg28
S'cao'
p76
sbsg47
g0
(g7
g2
Ntp77
Rp78
(dp79
g11
(dp80
g23
g0
(g7
g2
Ntp81
Rp82
(dp83
g11
(dp84
sg28
S'cang'
p85
sbssg28
S'can'
p86
sbssg28
S'ca'
p87
sbsS'e'
p88
g0
(g7
g2
Ntp89
Rp90
(dp91
g11
(dp92
g47
g0
(g7
g2
Ntp93
Rp94
(dp95
g11
(dp96
g23
g0
(g7
g2
Ntp97
Rp98
(dp99
g11
(dp100
sg28
S'ceng'
p101
sbssg28
S'cen'
p102
sbssg28
S'ce'
p103
sbsg35
g0
(g7
g2
Ntp104
Rp105
(dp106
g11
(dp107
sg28
S'ci'
p108
sbsS'h'
p109
g0
(g7
g2
Ntp110
Rp111
(dp112
g11
(dp113
g30
g0
(g7
g2
Ntp114
Rp115
(dp116
g11
(dp117
g35
g0
(g7
g2
Ntp118
Rp119
(dp120
g11
(dp121
sg28
S'chai'
p122
sbsg41
g0
(g7
g2
Ntp123
Rp124
(dp125
g11
(dp126
sg28
S'chao'
p127
sbsg47
g0
(g7
g2
Ntp128
Rp129
(dp130
g11
(dp131
g23
g0
(g7
g2
Ntp132
Rp133
(dp134
g11
(dp135
sg28
S'chang'
p136
sbssg28
S'chan'
p137
sbssg28
S'cha'
p138
sbsg35
g0
(g7
g2
Ntp139
Rp140
(dp141
g11
(dp142
sg28
S'chi'
p143
sbsg88
g0
(g7
g2
Ntp144
Rp145
(dp146
g11
(dp147
g47
g0
(g7
g2
Ntp148
Rp149
(dp150
g11
(dp151
g23
g0
(g7
g2
Ntp152
Rp153
(dp154
g11
(dp155
sg28
S'cheng'
p156
sbssg28
S'chen'
p157
sbssg28
S'che'
p158
sbsS'u'
p159
g0
(g7
g2
Ntp160
Rp161
(dp162
g11
(dp163
g30
g0
(g7
g2
Ntp164
Rp165
(dp166
g11
(dp167
g35
g0
(g7
g2
Ntp168
Rp169
(dp170
g11
(dp171
sg28
S'chuai'
p172
sbsg47
g0
(g7
g2
Ntp173
Rp174
(dp175
g11
(dp176
g23
g0
(g7
g2
Ntp177
Rp178
(dp179
g11
(dp180
sg28
S'chuang'
p181
sbssg28
S'chuan'
p182
sbssg28
Nsbsg35
g0
(g7
g2
Ntp183
Rp184
(dp185
g11
(dp186
sg28
S'chui'
p187
sbsg41
g0
(g7
g2
Ntp188
Rp189
(dp190
g11
(dp191
sg28
S'chuo'
p192
sbsg47
g0
(g7
g2
Ntp193
Rp194
(dp195
g11
(dp196
sg28
S'chun'
p197
sbssg28
S'chu'
p198
sbsg41
g0
(g7
g2
Ntp199
Rp200
(dp201
g11
(dp202
g159
g0
(g7
g2
Ntp203
Rp204
(dp205
g11
(dp206
sg28
S'chou'
p207
sbsg47
g0
(g7
g2
Ntp208
Rp209
(dp210
g11
(dp211
g23
g0
(g7
g2
Ntp212
Rp213
(dp214
g11
(dp215
sg28
S'chong'
p216
sbssg28
Nsbssg28
Nsbssg28
Nsbsg41
g0
(g7
g2
Ntp217
Rp218
(dp219
g11
(dp220
g159
g0
(g7
g2
Ntp221
Rp222
(dp223
g11
(dp224
sg28
S'cou'
p225
sbsg47
g0
(g7
g2
Ntp226
Rp227
(dp228
g11
(dp229
g23
g0
(g7
g2
Ntp230
Rp231
(dp232
g11
(dp233
sg28
S'cong'
p234
sbssg28
Nsbssg28
Nsbsg159
g0
(g7
g2
Ntp235
Rp236
(dp237
g11
(dp238
g30
g0
(g7
g2
Ntp239
Rp240
(dp241
g11
(dp242
g47
g0
(g7
g2
Ntp243
Rp244
(dp245
g11
(dp246
sg28
S'cuan'
p247
sbssg28
Nsbsg35
g0
(g7
g2
Ntp248
Rp249
(dp250
g11
(dp251
sg28
S'cui'
p252
sbsg41
g0
(g7
g2
Ntp253
Rp254
(dp255
g11
(dp256
sg28
S'cuo'
p257
sbsg47
g0
(g7
g2
Ntp258
Rp259
(dp260
g11
(dp261
sg28
S'cun'
p262
sbssg28
S'cu'
p263
sbssg28
NsbsS'b'
p264
g0
(g7
g2
Ntp265
Rp266
(dp267
g11
(dp268
g30
g0
(g7
g2
Ntp269
Rp270
(dp271
g11
(dp272
g35
g0
(g7
g2
Ntp273
Rp274
(dp275
g11
(dp276
sg28
S'bai'
p277
sbsg41
g0
(g7
g2
Ntp278
Rp279
(dp280
g11
(dp281
sg28
S'bao'
p282
sbsg47
g0
(g7
g2
Ntp283
Rp284
(dp285
g11
(dp286
g23
g0
(g7
g2
Ntp287
Rp288
(dp289
g11
(dp290
sg28
S'bang'
p291
sbssg28
S'ban'
p292
sbssg28
S'ba'
p293
sbsg35
g0
(g7
g2
Ntp294
Rp295
(dp296
g11
(dp297
g30
g0
(g7
g2
Ntp298
Rp299
(dp300
g11
(dp301
g41
g0
(g7
g2
Ntp302
Rp303
(dp304
g11
(dp305
sg28
S'biao'
p306
sbsg47
g0
(g7
g2
Ntp307
Rp308
(dp309
g11
(dp310
sg28
S'bian'
p311
sbssg28
Nsbsg88
g0
(g7
g2
Ntp312
Rp313
(dp314
g11
(dp315
sg28
S'bie'
p316
sbsg47
g0
(g7
g2
Ntp317
Rp318
(dp319
g11
(dp320
g23
g0
(g7
g2
Ntp321
Rp322
(dp323
g11
(dp324
sg28
S'bing'
p325
sbssg28
S'bin'
p326
sbssg28
S'bi'
p327
sbsg88
g0
(g7
g2
Ntp328
Rp329
(dp330
g11
(dp331
g35
g0
(g7
g2
Ntp332
Rp333
(dp334
g11
(dp335
sg28
S'bei'
p336
sbsg47
g0
(g7
g2
Ntp337
Rp338
(dp339
g11
(dp340
g23
g0
(g7
g2
Ntp341
Rp342
(dp343
g11
(dp344
sg28
S'beng'
p345
sbssg28
S'ben'
p346
sbssg28
Nsbsg159
g0
(g7
g2
Ntp347
Rp348
(dp349
g11
(dp350
sg28
S'bu'
p351
sbsg41
g0
(g7
g2
Ntp352
Rp353
(dp354
g11
(dp355
sg28
S'bo'
p356
sbssg28
Nsbsg88
g0
(g7
g2
Ntp357
Rp358
(dp359
g11
(dp360
g35
g0
(g7
g2
Ntp361
Rp362
(dp363
g11
(dp364
sg28
S'ei'
p365
sbsS'r'
p366
g0
(g7
g2
Ntp367
Rp368
(dp369
g11
(dp370
sg28
S'er'
p371
sbsg47
g0
(g7
g2
Ntp372
Rp373
(dp374
g11
(dp375
sg28
S'en'
p376
sbssg28
g88
sbsS'd'
p377
g0
(g7
g2
Ntp378
Rp379
(dp380
g11
(dp381
g30
g0
(g7
g2
Ntp382
Rp383
(dp384
g11
(dp385
g35
g0
(g7
g2
Ntp386
Rp387
(dp388
g11
(dp389
sg28
S'dai'
p390
sbsg41
g0
(g7
g2
Ntp391
Rp392
(dp393
g11
(dp394
sg28
S'dao'
p395
sbsg47
g0
(g7
g2
Ntp396
Rp397
(dp398
g11
(dp399
g23
g0
(g7
g2
Ntp400
Rp401
(dp402
g11
(dp403
sg28
S'dang'
p404
sbssg28
S'dan'
p405
sbssg28
S'da'
p406
sbsg35
g0
(g7
g2
Ntp407
Rp408
(dp409
g11
(dp410
g30
g0
(g7
g2
Ntp411
Rp412
(dp413
g11
(dp414
g41
g0
(g7
g2
Ntp415
Rp416
(dp417
g11
(dp418
sg28
S'diao'
p419
sbsg47
g0
(g7
g2
Ntp420
Rp421
(dp422
g11
(dp423
sg28
S'dian'
p424
sbssg28
S'dia'
p425
sbsg159
g0
(g7
g2
Ntp426
Rp427
(dp428
g11
(dp429
sg28
S'diu'
p430
sbsg88
g0
(g7
g2
Ntp431
Rp432
(dp433
g11
(dp434
sg28
S'die'
p435
sbsg47
g0
(g7
g2
Ntp436
Rp437
(dp438
g11
(dp439
g23
g0
(g7
g2
Ntp440
Rp441
(dp442
g11
(dp443
sg28
S'ding'
p444
sbssg28
Nsbssg28
S'di'
p445
sbsg88
g0
(g7
g2
Ntp446
Rp447
(dp448
g11
(dp449
g47
g0
(g7
g2
Ntp450
Rp451
(dp452
g11
(dp453
g23
g0
(g7
g2
Ntp454
Rp455
(dp456
g11
(dp457
sg28
S'deng'
p458
sbssg28
Nsbssg28
S'de'
p459
sbsg159
g0
(g7
g2
Ntp460
Rp461
(dp462
g11
(dp463
g30
g0
(g7
g2
Ntp464
Rp465
(dp466
g11
(dp467
g47
g0
(g7
g2
Ntp468
Rp469
(dp470
g11
(dp471
sg28
S'duan'
p472
sbssg28
Nsbsg35
g0
(g7
g2
Ntp473
Rp474
(dp475
g11
(dp476
sg28
S'dui'
p477
sbsg41
g0
(g7
g2
Ntp478
Rp479
(dp480
g11
(dp481
sg28
S'duo'
p482
sbsg47
g0
(g7
g2
Ntp483
Rp484
(dp485
g11
(dp486
sg28
S'dun'
p487
sbssg28
S'du'
p488
sbsg41
g0
(g7
g2
Ntp489
Rp490
(dp491
g11
(dp492
g159
g0
(g7
g2
Ntp493
Rp494
(dp495
g11
(dp496
sg28
S'dou'
p497
sbsg47
g0
(g7
g2
Ntp498
Rp499
(dp500
g11
(dp501
g23
g0
(g7
g2
Ntp502
Rp503
(dp504
g11
(dp505
sg28
S'dong'
p506
sbssg28
Nsbssg28
Nsbssg28
Nsbsg23
g0
(g7
g2
Ntp507
Rp508
(dp509
g11
(dp510
g30
g0
(g7
g2
Ntp511
Rp512
(dp513
g11
(dp514
g35
g0
(g7
g2
Ntp515
Rp516
(dp517
g11
(dp518
sg28
S'gai'
p519
sbsg41
g0
(g7
g2
Ntp520
Rp521
(dp522
g11
(dp523
sg28
S'gao'
p524
sbsg47
g0
(g7
g2
Ntp525
Rp526
(dp527
g11
(dp528
g23
g0
(g7
g2
Ntp529
Rp530
(dp531
g11
(dp532
sg28
S'gang'
p533
sbssg28
S'gan'
p534
sbssg28
S'ga'
p535
sbsg159
g0
(g7
g2
Ntp536
Rp537
(dp538
g11
(dp539
g30
g0
(g7
g2
Ntp540
Rp541
(dp542
g11
(dp543
g35
g0
(g7
g2
Ntp544
Rp545
(dp546
g11
(dp547
sg28
S'guai'
p548
sbsg47
g0
(g7
g2
Ntp549
Rp550
(dp551
g11
(dp552
g23
g0
(g7
g2
Ntp553
Rp554
(dp555
g11
(dp556
sg28
S'guang'
p557
sbssg28
S'guan'
p558
sbssg28
S'gua'
p559
sbsg35
g0
(g7
g2
Ntp560
Rp561
(dp562
g11
(dp563
sg28
S'gui'
p564
sbsg41
g0
(g7
g2
Ntp565
Rp566
(dp567
g11
(dp568
sg28
S'guo'
p569
sbsg47
g0
(g7
g2
Ntp570
Rp571
(dp572
g11
(dp573
sg28
S'gun'
p574
sbssg28
S'gu'
p575
sbsg88
g0
(g7
g2
Ntp576
Rp577
(dp578
g11
(dp579
g35
g0
(g7
g2
Ntp580
Rp581
(dp582
g11
(dp583
sg28
S'gei'
p584
sbsg47
g0
(g7
g2
Ntp585
Rp586
(dp587
g11
(dp588
g23
g0
(g7
g2
Ntp589
Rp590
(dp591
g11
(dp592
sg28
S'geng'
p593
sbssg28
S'gen'
p594
sbssg28
S'ge'
p595
sbsg41
g0
(g7
g2
Ntp596
Rp597
(dp598
g11
(dp599
g159
g0
(g7
g2
Ntp600
Rp601
(dp602
g11
(dp603
sg28
S'gou'
p604
sbsg47
g0
(g7
g2
Ntp605
Rp606
(dp607
g11
(dp608
g23
g0
(g7
g2
Ntp609
Rp610
(dp611
g11
(dp612
sg28
S'gong'
p613
sbssg28
Nsbssg28
Nsbssg28
NsbsS'f'
p614
g0
(g7
g2
Ntp615
Rp616
(dp617
g11
(dp618
g30
g0
(g7
g2
Ntp619
Rp620
(dp621
g11
(dp622
g47
g0
(g7
g2
Ntp623
Rp624
(dp625
g11
(dp626
g23
g0
(g7
g2
Ntp627
Rp628
(dp629
g11
(dp630
sg28
S'fang'
p631
sbssg28
S'fan'
p632
sbssg28
S'fa'
p633
sbsg159
g0
(g7
g2
Ntp634
Rp635
(dp636
g11
(dp637
sg28
S'fu'
p638
sbsg88
g0
(g7
g2
Ntp639
Rp640
(dp641
g11
(dp642
g35
g0
(g7
g2
Ntp643
Rp644
(dp645
g11
(dp646
sg28
S'fei'
p647
sbsg47
g0
(g7
g2
Ntp648
Rp649
(dp650
g11
(dp651
g23
g0
(g7
g2
Ntp652
Rp653
(dp654
g11
(dp655
sg28
S'feng'
p656
sbssg28
S'fen'
p657
sbssg28
Nsbsg41
g0
(g7
g2
Ntp658
Rp659
(dp660
g11
(dp661
g159
g0
(g7
g2
Ntp662
Rp663
(dp664
g11
(dp665
sg28
S'fou'
p666
sbssg28
S'fo'
p667
sbssg28
Nsbsg109
g0
(g7
g2
Ntp668
Rp669
(dp670
g11
(dp671
g30
g0
(g7
g2
Ntp672
Rp673
(dp674
g11
(dp675
g35
g0
(g7
g2
Ntp676
Rp677
(dp678
g11
(dp679
sg28
S'hai'
p680
sbsg41
g0
(g7
g2
Ntp681
Rp682
(dp683
g11
(dp684
sg28
S'hao'
p685
sbsg47
g0
(g7
g2
Ntp686
Rp687
(dp688
g11
(dp689
g23
g0
(g7
g2
Ntp690
Rp691
(dp692
g11
(dp693
sg28
S'hang'
p694
sbssg28
S'han'
p695
sbssg28
S'ha'
p696
sbsg159
g0
(g7
g2
Ntp697
Rp698
(dp699
g11
(dp700
g30
g0
(g7
g2
Ntp701
Rp702
(dp703
g11
(dp704
g35
g0
(g7
g2
Ntp705
Rp706
(dp707
g11
(dp708
sg28
S'huai'
p709
sbsg47
g0
(g7
g2
Ntp710
Rp711
(dp712
g11
(dp713
g23
g0
(g7
g2
Ntp714
Rp715
(dp716
g11
(dp717
sg28
S'huang'
p718
sbssg28
S'huan'
p719
sbssg28
S'hua'
p720
sbsg35
g0
(g7
g2
Ntp721
Rp722
(dp723
g11
(dp724
sg28
S'hui'
p725
sbsg41
g0
(g7
g2
Ntp726
Rp727
(dp728
g11
(dp729
sg28
S'huo'
p730
sbsg47
g0
(g7
g2
Ntp731
Rp732
(dp733
g11
(dp734
sg28
S'hun'
p735
sbssg28
S'hu'
p736
sbsg88
g0
(g7
g2
Ntp737
Rp738
(dp739
g11
(dp740
g35
g0
(g7
g2
Ntp741
Rp742
(dp743
g11
(dp744
sg28
S'hei'
p745
sbsg47
g0
(g7
g2
Ntp746
Rp747
(dp748
g11
(dp749
g23
g0
(g7
g2
Ntp750
Rp751
(dp752
g11
(dp753
sg28
S'heng'
p754
sbssg28
S'hen'
p755
sbssg28
S'he'
p756
sbsg41
g0
(g7
g2
Ntp757
Rp758
(dp759
g11
(dp760
g159
g0
(g7
g2
Ntp761
Rp762
(dp763
g11
(dp764
sg28
S'hou'
p765
sbsg47
g0
(g7
g2
Ntp766
Rp767
(dp768
g11
(dp769
g23
g0
(g7
g2
Ntp770
Rp771
(dp772
g11
(dp773
sg28
S'hong'
p774
sbssg28
Nsbssg28
Nsbssg28
NsbsS'k'
p775
g0
(g7
g2
Ntp776
Rp777
(dp778
g11
(dp779
g30
g0
(g7
g2
Ntp780
Rp781
(dp782
g11
(dp783
g35
g0
(g7
g2
Ntp784
Rp785
(dp786
g11
(dp787
sg28
S'kai'
p788
sbsg41
g0
(g7
g2
Ntp789
Rp790
(dp791
g11
(dp792
sg28
S'kao'
p793
sbsg47
g0
(g7
g2
Ntp794
Rp795
(dp796
g11
(dp797
g23
g0
(g7
g2
Ntp798
Rp799
(dp800
g11
(dp801
sg28
S'kang'
p802
sbssg28
S'kan'
p803
sbssg28
S'ka'
p804
sbsg159
g0
(g7
g2
Ntp805
Rp806
(dp807
g11
(dp808
g30
g0
(g7
g2
Ntp809
Rp810
(dp811
g11
(dp812
g35
g0
(g7
g2
Ntp813
Rp814
(dp815
g11
(dp816
sg28
S'kuai'
p817
sbsg47
g0
(g7
g2
Ntp818
Rp819
(dp820
g11
(dp821
g23
g0
(g7
g2
Ntp822
Rp823
(dp824
g11
(dp825
sg28
S'kuang'
p826
sbssg28
S'kuan'
p827
sbssg28
S'kua'
p828
sbsg35
g0
(g7
g2
Ntp829
Rp830
(dp831
g11
(dp832
sg28
S'kui'
p833
sbsg41
g0
(g7
g2
Ntp834
Rp835
(dp836
g11
(dp837
sg28
S'kuo'
p838
sbsg47
g0
(g7
g2
Ntp839
Rp840
(dp841
g11
(dp842
sg28
S'kun'
p843
sbssg28
S'ku'
p844
sbsg88
g0
(g7
g2
Ntp845
Rp846
(dp847
g11
(dp848
g47
g0
(g7
g2
Ntp849
Rp850
(dp851
g11
(dp852
g23
g0
(g7
g2
Ntp853
Rp854
(dp855
g11
(dp856
sg28
S'keng'
p857
sbssg28
S'ken'
p858
sbssg28
S'ke'
p859
sbsg41
g0
(g7
g2
Ntp860
Rp861
(dp862
g11
(dp863
g159
g0
(g7
g2
Ntp864
Rp865
(dp866
g11
(dp867
sg28
S'kou'
p868
sbsg47
g0
(g7
g2
Ntp869
Rp870
(dp871
g11
(dp872
g23
g0
(g7
g2
Ntp873
Rp874
(dp875
g11
(dp876
sg28
S'kong'
p877
sbssg28
Nsbssg28
Nsbssg28
NsbsS'j'
p878
g0
(g7
g2
Ntp879
Rp880
(dp881
g11
(dp882
g35
g0
(g7
g2
Ntp883
Rp884
(dp885
g11
(dp886
g30
g0
(g7
g2
Ntp887
Rp888
(dp889
g11
(dp890
g41
g0
(g7
g2
Ntp891
Rp892
(dp893
g11
(dp894
sg28
S'jiao'
p895
sbsg47
g0
(g7
g2
Ntp896
Rp897
(dp898
g11
(dp899
g23
g0
(g7
g2
Ntp900
Rp901
(dp902
g11
(dp903
sg28
S'jiang'
p904
sbssg28
S'jian'
p905
sbssg28
S'jia'
p906
sbsg159
g0
(g7
g2
Ntp907
Rp908
(dp909
g11
(dp910
sg28
S'jiu'
p911
sbsg88
g0
(g7
g2
Ntp912
Rp913
(dp914
g11
(dp915
sg28
S'jie'
p916
sbsg41
g0
(g7
g2
Ntp917
Rp918
(dp919
g11
(dp920
g47
g0
(g7
g2
Ntp921
Rp922
(dp923
g11
(dp924
g23
g0
(g7
g2
Ntp925
Rp926
(dp927
g11
(dp928
sg28
S'jiong'
p929
sbssg28
Nsbssg28
Nsbsg47
g0
(g7
g2
Ntp930
Rp931
(dp932
g11
(dp933
g23
g0
(g7
g2
Ntp934
Rp935
(dp936
g11
(dp937
sg28
S'jing'
p938
sbssg28
S'jin'
p939
sbssg28
S'ji'
p940
sbsg159
g0
(g7
g2
Ntp941
Rp942
(dp943
g11
(dp944
g30
g0
(g7
g2
Ntp945
Rp946
(dp947
g11
(dp948
g47
g0
(g7
g2
Ntp949
Rp950
(dp951
g11
(dp952
sg28
S'juan'
p953
sbssg28
Nsbsg88
g0
(g7
g2
Ntp954
Rp955
(dp956
g11
(dp957
sg28
S'jue'
p958
sbsg47
g0
(g7
g2
Ntp959
Rp960
(dp961
g11
(dp962
sg28
S'jun'
p963
sbssg28
S'ju'
p964
sbssg28
NsbsS'm'
p965
g0
(g7
g2
Ntp966
Rp967
(dp968
g11
(dp969
g30
g0
(g7
g2
Ntp970
Rp971
(dp972
g11
(dp973
g35
g0
(g7
g2
Ntp974
Rp975
(dp976
g11
(dp977
sg28
S'mai'
p978
sbsg41
g0
(g7
g2
Ntp979
Rp980
(dp981
g11
(dp982
sg28
S'mao'
p983
sbsg47
g0
(g7
g2
Ntp984
Rp985
(dp986
g11
(dp987
g23
g0
(g7
g2
Ntp988
Rp989
(dp990
g11
(dp991
sg28
S'mang'
p992
sbssg28
S'man'
p993
sbssg28
S'ma'
p994
sbsg35
g0
(g7
g2
Ntp995
Rp996
(dp997
g11
(dp998
g30
g0
(g7
g2
Ntp999
Rp1000
(dp1001
g11
(dp1002
g41
g0
(g7
g2
Ntp1003
Rp1004
(dp1005
g11
(dp1006
sg28
S'miao'
p1007
sbsg47
g0
(g7
g2
Ntp1008
Rp1009
(dp1010
g11
(dp1011
sg28
S'mian'
p1012
sbssg28
Nsbsg159
g0
(g7
g2
Ntp1013
Rp1014
(dp1015
g11
(dp1016
sg28
S'miu'
p1017
sbsg88
g0
(g7
g2
Ntp1018
Rp1019
(dp1020
g11
(dp1021
sg28
S'mie'
p1022
sbsg47
g0
(g7
g2
Ntp1023
Rp1024
(dp1025
g11
(dp1026
g23
g0
(g7
g2
Ntp1027
Rp1028
(dp1029
g11
(dp1030
sg28
S'ming'
p1031
sbssg28
S'min'
p1032
sbssg28
S'mi'
p1033
sbsg88
g0
(g7
g2
Ntp1034
Rp1035
(dp1036
g11
(dp1037
g35
g0
(g7
g2
Ntp1038
Rp1039
(dp1040
g11
(dp1041
sg28
S'mei'
p1042
sbsg47
g0
(g7
g2
Ntp1043
Rp1044
(dp1045
g11
(dp1046
g23
g0
(g7
g2
Ntp1047
Rp1048
(dp1049
g11
(dp1050
sg28
S'meng'
p1051
sbssg28
S'men'
p1052
sbssg28
Nsbsg159
g0
(g7
g2
Ntp1053
Rp1054
(dp1055
g11
(dp1056
sg28
S'mu'
p1057
sbsg41
g0
(g7
g2
Ntp1058
Rp1059
(dp1060
g11
(dp1061
g159
g0
(g7
g2
Ntp1062
Rp1063
(dp1064
g11
(dp1065
sg28
S'mou'
p1066
sbssg28
S'mo'
p1067
sbssg28
NsbsS'l'
p1068
g0
(g7
g2
Ntp1069
Rp1070
(dp1071
g11
(dp1072
g30
g0
(g7
g2
Ntp1073
Rp1074
(dp1075
g11
(dp1076
g35
g0
(g7
g2
Ntp1077
Rp1078
(dp1079
g11
(dp1080
sg28
S'lai'
p1081
sbsg41
g0
(g7
g2
Ntp1082
Rp1083
(dp1084
g11
(dp1085
sg28
S'lao'
p1086
sbsg47
g0
(g7
g2
Ntp1087
Rp1088
(dp1089
g11
(dp1090
g23
g0
(g7
g2
Ntp1091
Rp1092
(dp1093
g11
(dp1094
sg28
S'lang'
p1095
sbssg28
S'lan'
p1096
sbssg28
S'la'
p1097
sbsg88
g0
(g7
g2
Ntp1098
Rp1099
(dp1100
g11
(dp1101
g35
g0
(g7
g2
Ntp1102
Rp1103
(dp1104
g11
(dp1105
sg28
S'lei'
p1106
sbsg47
g0
(g7
g2
Ntp1107
Rp1108
(dp1109
g11
(dp1110
g23
g0
(g7
g2
Ntp1111
Rp1112
(dp1113
g11
(dp1114
sg28
S'leng'
p1115
sbssg28
Nsbssg28
S'le'
p1116
sbsg35
g0
(g7
g2
Ntp1117
Rp1118
(dp1119
g11
(dp1120
g30
g0
(g7
g2
Ntp1121
Rp1122
(dp1123
g11
(dp1124
g41
g0
(g7
g2
Ntp1125
Rp1126
(dp1127
g11
(dp1128
sg28
S'liao'
p1129
sbsg47
g0
(g7
g2
Ntp1130
Rp1131
(dp1132
g11
(dp1133
g23
g0
(g7
g2
Ntp1134
Rp1135
(dp1136
g11
(dp1137
sg28
S'liang'
p1138
sbssg28
S'lian'
p1139
sbssg28
Nsbsg159
g0
(g7
g2
Ntp1140
Rp1141
(dp1142
g11
(dp1143
sg28
S'liu'
p1144
sbsg88
g0
(g7
g2
Ntp1145
Rp1146
(dp1147
g11
(dp1148
sg28
S'lie'
p1149
sbsg47
g0
(g7
g2
Ntp1150
Rp1151
(dp1152
g11
(dp1153
g23
g0
(g7
g2
Ntp1154
Rp1155
(dp1156
g11
(dp1157
sg28
S'ling'
p1158
sbssg28
S'lin'
p1159
sbssg28
S'li'
p1160
sbsg41
g0
(g7
g2
Ntp1161
Rp1162
(dp1163
g11
(dp1164
g159
g0
(g7
g2
Ntp1165
Rp1166
(dp1167
g11
(dp1168
sg28
S'lou'
p1169
sbsg47
g0
(g7
g2
Ntp1170
Rp1171
(dp1172
g11
(dp1173
g23
g0
(g7
g2
Ntp1174
Rp1175
(dp1176
g11
(dp1177
sg28
S'long'
p1178
sbssg28
Nsbssg28
Nsbsg159
g0
(g7
g2
Ntp1179
Rp1180
(dp1181
g11
(dp1182
g30
g0
(g7
g2
Ntp1183
Rp1184
(dp1185
g11
(dp1186
g47
g0
(g7
g2
Ntp1187
Rp1188
(dp1189
g11
(dp1190
sg28
S'luan'
p1191
sbssg28
Nsbsg41
g0
(g7
g2
Ntp1192
Rp1193
(dp1194
g11
(dp1195
sg28
S'luo'
p1196
sbsg47
g0
(g7
g2
Ntp1197
Rp1198
(dp1199
g11
(dp1200
sg28
S'lun'
p1201
sbssg28
S'lu'
p1202
sbsS'v'
p1203
g0
(g7
g2
Ntp1204
Rp1205
(dp1206
g11
(dp1207
g88
g0
(g7
g2
Ntp1208
Rp1209
(dp1210
g11
(dp1211
sg28
S'lve'
p1212
sbssg28
S'lv'
p1213
sbssg28
Nsbsg41
g0
(g7
g2
Ntp1214
Rp1215
(dp1216
g11
(dp1217
g159
g0
(g7
g2
Ntp1218
Rp1219
(dp1220
g11
(dp1221
sg28
S'ou'
p1222
sbssg28
g41
sbsg47
g0
(g7
g2
Ntp1223
Rp1224
(dp1225
g11
(dp1226
g30
g0
(g7
g2
Ntp1227
Rp1228
(dp1229
g11
(dp1230
g35
g0
(g7
g2
Ntp1231
Rp1232
(dp1233
g11
(dp1234
sg28
S'nai'
p1235
sbsg41
g0
(g7
g2
Ntp1236
Rp1237
(dp1238
g11
(dp1239
sg28
S'nao'
p1240
sbsg47
g0
(g7
g2
Ntp1241
Rp1242
(dp1243
g11
(dp1244
g23
g0
(g7
g2
Ntp1245
Rp1246
(dp1247
g11
(dp1248
sg28
S'nang'
p1249
sbssg28
S'nan'
p1250
sbssg28
S'na'
p1251
sbsg88
g0
(g7
g2
Ntp1252
Rp1253
(dp1254
g11
(dp1255
g35
g0
(g7
g2
Ntp1256
Rp1257
(dp1258
g11
(dp1259
sg28
S'nei'
p1260
sbsg47
g0
(g7
g2
Ntp1261
Rp1262
(dp1263
g11
(dp1264
g23
g0
(g7
g2
Ntp1265
Rp1266
(dp1267
g11
(dp1268
sg28
S'neng'
p1269
sbssg28
S'nen'
p1270
sbssg28
S'ne'
p1271
sbsg35
g0
(g7
g2
Ntp1272
Rp1273
(dp1274
g11
(dp1275
g30
g0
(g7
g2
Ntp1276
Rp1277
(dp1278
g11
(dp1279
g41
g0
(g7
g2
Ntp1280
Rp1281
(dp1282
g11
(dp1283
sg28
S'niao'
p1284
sbsg47
g0
(g7
g2
Ntp1285
Rp1286
(dp1287
g11
(dp1288
g23
g0
(g7
g2
Ntp1289
Rp1290
(dp1291
g11
(dp1292
sg28
S'niang'
p1293
sbssg28
S'nian'
p1294
sbssg28
Nsbsg159
g0
(g7
g2
Ntp1295
Rp1296
(dp1297
g11
(dp1298
sg28
S'niu'
p1299
sbsg88
g0
(g7
g2
Ntp1300
Rp1301
(dp1302
g11
(dp1303
sg28
S'nie'
p1304
sbsg47
g0
(g7
g2
Ntp1305
Rp1306
(dp1307
g11
(dp1308
g23
g0
(g7
g2
Ntp1309
Rp1310
(dp1311
g11
(dp1312
sg28
S'ning'
p1313
sbssg28
S'nin'
p1314
sbssg28
S'ni'
p1315
sbsg41
g0
(g7
g2
Ntp1316
Rp1317
(dp1318
g11
(dp1319
g47
g0
(g7
g2
Ntp1320
Rp1321
(dp1322
g11
(dp1323
g23
g0
(g7
g2
Ntp1324
Rp1325
(dp1326
g11
(dp1327
sg28
S'nong'
p1328
sbssg28
Nsbssg28
Nsbsg159
g0
(g7
g2
Ntp1329
Rp1330
(dp1331
g11
(dp1332
g30
g0
(g7
g2
Ntp1333
Rp1334
(dp1335
g11
(dp1336
g47
g0
(g7
g2
Ntp1337
Rp1338
(dp1339
g11
(dp1340
sg28
S'nuan'
p1341
sbssg28
Nsbsg41
g0
(g7
g2
Ntp1342
Rp1343
(dp1344
g11
(dp1345
sg28
S'nuo'
p1346
sbssg28
S'nu'
p1347
sbsg1203
g0
(g7
g2
Ntp1348
Rp1349
(dp1350
g11
(dp1351
g88
g0
(g7
g2
Ntp1352
Rp1353
(dp1354
g11
(dp1355
sg28
S'nve'
p1356
sbssg28
S'nv'
p1357
sbssg28
NsbsS'q'
p1358
g0
(g7
g2
Ntp1359
Rp1360
(dp1361
g11
(dp1362
g35
g0
(g7
g2
Ntp1363
Rp1364
(dp1365
g11
(dp1366
g30
g0
(g7
g2
Ntp1367
Rp1368
(dp1369
g11
(dp1370
g41
g0
(g7
g2
Ntp1371
Rp1372
(dp1373
g11
(dp1374
sg28
S'qiao'
p1375
sbsg47
g0
(g7
g2
Ntp1376
Rp1377
(dp1378
g11
(dp1379
g23
g0
(g7
g2
Ntp1380
Rp1381
(dp1382
g11
(dp1383
sg28
S'qiang'
p1384
sbssg28
S'qian'
p1385
sbssg28
S'qia'
p1386
sbsg159
g0
(g7
g2
Ntp1387
Rp1388
(dp1389
g11
(dp1390
sg28
S'qiu'
p1391
sbsg88
g0
(g7
g2
Ntp1392
Rp1393
(dp1394
g11
(dp1395
sg28
S'qie'
p1396
sbsg41
g0
(g7
g2
Ntp1397
Rp1398
(dp1399
g11
(dp1400
g47
g0
(g7
g2
Ntp1401
Rp1402
(dp1403
g11
(dp1404
g23
g0
(g7
g2
Ntp1405
Rp1406
(dp1407
g11
(dp1408
sg28
S'qiong'
p1409
sbssg28
Nsbssg28
Nsbsg47
g0
(g7
g2
Ntp1410
Rp1411
(dp1412
g11
(dp1413
g23
g0
(g7
g2
Ntp1414
Rp1415
(dp1416
g11
(dp1417
sg28
S'qing'
p1418
sbssg28
S'qin'
p1419
sbssg28
S'qi'
p1420
sbsg159
g0
(g7
g2
Ntp1421
Rp1422
(dp1423
g11
(dp1424
g30
g0
(g7
g2
Ntp1425
Rp1426
(dp1427
g11
(dp1428
g47
g0
(g7
g2
Ntp1429
Rp1430
(dp1431
g11
(dp1432
sg28
S'quan'
p1433
sbssg28
Nsbsg88
g0
(g7
g2
Ntp1434
Rp1435
(dp1436
g11
(dp1437
sg28
S'que'
p1438
sbsg47
g0
(g7
g2
Ntp1439
Rp1440
(dp1441
g11
(dp1442
sg28
S'qun'
p1443
sbssg28
S'qu'
p1444
sbssg28
NsbsS'p'
p1445
g0
(g7
g2
Ntp1446
Rp1447
(dp1448
g11
(dp1449
g30
g0
(g7
g2
Ntp1450
Rp1451
(dp1452
g11
(dp1453
g35
g0
(g7
g2
Ntp1454
Rp1455
(dp1456
g11
(dp1457
sg28
S'pai'
p1458
sbsg41
g0
(g7
g2
Ntp1459
Rp1460
(dp1461
g11
(dp1462
sg28
S'pao'
p1463
sbsg47
g0
(g7
g2
Ntp1464
Rp1465
(dp1466
g11
(dp1467
g23
g0
(g7
g2
Ntp1468
Rp1469
(dp1470
g11
(dp1471
sg28
S'pang'
p1472
sbssg28
S'pan'
p1473
sbssg28
S'pa'
p1474
sbsg35
g0
(g7
g2
Ntp1475
Rp1476
(dp1477
g11
(dp1478
g30
g0
(g7
g2
Ntp1479
Rp1480
(dp1481
g11
(dp1482
g41
g0
(g7
g2
Ntp1483
Rp1484
(dp1485
g11
(dp1486
sg28
S'piao'
p1487
sbsg47
g0
(g7
g2
Ntp1488
Rp1489
(dp1490
g11
(dp1491
sg28
S'pian'
p1492
sbssg28
Nsbsg88
g0
(g7
g2
Ntp1493
Rp1494
(dp1495
g11
(dp1496
sg28
S'pie'
p1497
sbsg47
g0
(g7
g2
Ntp1498
Rp1499
(dp1500
g11
(dp1501
S'y'
p1502
g0
(g7
g2
Ntp1503
Rp1504
(dp1505
g11
(dp1506
g35
g0
(g7
g2
Ntp1507
Rp1508
(dp1509
g11
(dp1510
g47
g0
(g7
g2
Ntp1511
Rp1512
(dp1513
g11
(dp1514
sg28
S'pinyin'
p1515
sbssg28
Nsbssg28
Nsbsg23
g0
(g7
g2
Ntp1516
Rp1517
(dp1518
g11
(dp1519
sg28
S'ping'
p1520
sbssg28
S'pin'
p1521
sbssg28
S'pi'
p1522
sbsg88
g0
(g7
g2
Ntp1523
Rp1524
(dp1525
g11
(dp1526
g35
g0
(g7
g2
Ntp1527
Rp1528
(dp1529
g11
(dp1530
sg28
S'pei'
p1531
sbsg47
g0
(g7
g2
Ntp1532
Rp1533
(dp1534
g11
(dp1535
g23
g0
(g7
g2
Ntp1536
Rp1537
(dp1538
g11
(dp1539
sg28
S'peng'
p1540
sbssg28
S'pen'
p1541
sbssg28
Nsbsg159
g0
(g7
g2
Ntp1542
Rp1543
(dp1544
g11
(dp1545
sg28
S'pu'
p1546
sbsg41
g0
(g7
g2
Ntp1547
Rp1548
(dp1549
g11
(dp1550
g159
g0
(g7
g2
Ntp1551
Rp1552
(dp1553
g11
(dp1554
sg28
S'pou'
p1555
sbssg28
S'po'
p1556
sbssg28
NsbsS's'
p1557
g0
(g7
g2
Ntp1558
Rp1559
(dp1560
g11
(dp1561
g30
g0
(g7
g2
Ntp1562
Rp1563
(dp1564
g11
(dp1565
g35
g0
(g7
g2
Ntp1566
Rp1567
(dp1568
g11
(dp1569
sg28
S'sai'
p1570
sbsg41
g0
(g7
g2
Ntp1571
Rp1572
(dp1573
g11
(dp1574
sg28
S'sao'
p1575
sbsg47
g0
(g7
g2
Ntp1576
Rp1577
(dp1578
g11
(dp1579
g23
g0
(g7
g2
Ntp1580
Rp1581
(dp1582
g11
(dp1583
sg28
S'sang'
p1584
sbssg28
S'san'
p1585
sbssg28
S'sa'
p1586
sbsg88
g0
(g7
g2
Ntp1587
Rp1588
(dp1589
g11
(dp1590
g47
g0
(g7
g2
Ntp1591
Rp1592
(dp1593
g11
(dp1594
g23
g0
(g7
g2
Ntp1595
Rp1596
(dp1597
g11
(dp1598
sg28
S'seng'
p1599
sbssg28
S'sen'
p1600
sbssg28
S'se'
p1601
sbsg35
g0
(g7
g2
Ntp1602
Rp1603
(dp1604
g11
(dp1605
sg28
S'si'
p1606
sbsg109
g0
(g7
g2
Ntp1607
Rp1608
(dp1609
g11
(dp1610
g30
g0
(g7
g2
Ntp1611
Rp1612
(dp1613
g11
(dp1614
g35
g0
(g7
g2
Ntp1615
Rp1616
(dp1617
g11
(dp1618
sg28
S'shai'
p1619
sbsg41
g0
(g7
g2
Ntp1620
Rp1621
(dp1622
g11
(dp1623
sg28
S'shao'
p1624
sbsg47
g0
(g7
g2
Ntp1625
Rp1626
(dp1627
g11
(dp1628
g23
g0
(g7
g2
Ntp1629
Rp1630
(dp1631
g11
(dp1632
sg28
S'shang'
p1633
sbssg28
S'shan'
p1634
sbssg28
S'sha'
p1635
sbsg35
g0
(g7
g2
Ntp1636
Rp1637
(dp1638
g11
(dp1639
sg28
S'shi'
p1640
sbsg88
g0
(g7
g2
Ntp1641
Rp1642
(dp1643
g11
(dp1644
g47
g0
(g7
g2
Ntp1645
Rp1646
(dp1647
g11
(dp1648
g23
g0
(g7
g2
Ntp1649
Rp1650
(dp1651
g11
(dp1652
sg28
S'sheng'
p1653
sbssg28
S'shen'
p1654
sbssg28
S'she'
p1655
sbsg159
g0
(g7
g2
Ntp1656
Rp1657
(dp1658
g11
(dp1659
g30
g0
(g7
g2
Ntp1660
Rp1661
(dp1662
g11
(dp1663
g35
g0
(g7
g2
Ntp1664
Rp1665
(dp1666
g11
(dp1667
sg28
S'shuai'
p1668
sbsg47
g0
(g7
g2
Ntp1669
Rp1670
(dp1671
g11
(dp1672
g23
g0
(g7
g2
Ntp1673
Rp1674
(dp1675
g11
(dp1676
sg28
S'shuang'
p1677
sbssg28
S'shuan'
p1678
sbssg28
S'shua'
p1679
sbsg35
g0
(g7
g2
Ntp1680
Rp1681
(dp1682
g11
(dp1683
sg28
S'shui'
p1684
sbsg41
g0
(g7
g2
Ntp1685
Rp1686
(dp1687
g11
(dp1688
sg28
S'shuo'
p1689
sbsg47
g0
(g7
g2
Ntp1690
Rp1691
(dp1692
g11
(dp1693
sg28
S'shun'
p1694
sbssg28
S'shu'
p1695
sbsg41
g0
(g7
g2
Ntp1696
Rp1697
(dp1698
g11
(dp1699
g159
g0
(g7
g2
Ntp1700
Rp1701
(dp1702
g11
(dp1703
sg28
S'shou'
p1704
sbssg28
Nsbssg28
Nsbsg41
g0
(g7
g2
Ntp1705
Rp1706
(dp1707
g11
(dp1708
g159
g0
(g7
g2
Ntp1709
Rp1710
(dp1711
g11
(dp1712
sg28
S'sou'
p1713
sbsg47
g0
(g7
g2
Ntp1714
Rp1715
(dp1716
g11
(dp1717
g23
g0
(g7
g2
Ntp1718
Rp1719
(dp1720
g11
(dp1721
sg28
S'song'
p1722
sbssg28
Nsbssg28
Nsbsg159
g0
(g7
g2
Ntp1723
Rp1724
(dp1725
g11
(dp1726
g30
g0
(g7
g2
Ntp1727
Rp1728
(dp1729
g11
(dp1730
g47
g0
(g7
g2
Ntp1731
Rp1732
(dp1733
g11
(dp1734
sg28
S'suan'
p1735
sbssg28
Nsbsg35
g0
(g7
g2
Ntp1736
Rp1737
(dp1738
g11
(dp1739
sg28
S'sui'
p1740
sbsg41
g0
(g7
g2
Ntp1741
Rp1742
(dp1743
g11
(dp1744
sg28
S'suo'
p1745
sbsg47
g0
(g7
g2
Ntp1746
Rp1747
(dp1748
g11
(dp1749
sg28
S'sun'
p1750
sbssg28
S'su'
p1751
sbssg28
Nsbsg366
g0
(g7
g2
Ntp1752
Rp1753
(dp1754
g11
(dp1755
g30
g0
(g7
g2
Ntp1756
Rp1757
(dp1758
g11
(dp1759
g41
g0
(g7
g2
Ntp1760
Rp1761
(dp1762
g11
(dp1763
sg28
S'rao'
p1764
sbsg47
g0
(g7
g2
Ntp1765
Rp1766
(dp1767
g11
(dp1768
g23
g0
(g7
g2
Ntp1769
Rp1770
(dp1771
g11
(dp1772
sg28
S'rang'
p1773
sbssg28
S'ran'
p1774
sbssg28
Nsbsg35
g0
(g7
g2
Ntp1775
Rp1776
(dp1777
g11
(dp1778
sg28
S'ri'
p1779
sbsg88
g0
(g7
g2
Ntp1780
Rp1781
(dp1782
g11
(dp1783
g47
g0
(g7
g2
Ntp1784
Rp1785
(dp1786
g11
(dp1787
g23
g0
(g7
g2
Ntp1788
Rp1789
(dp1790
g11
(dp1791
sg28
S'reng'
p1792
sbssg28
S'ren'
p1793
sbssg28
S're'
p1794
sbsg159
g0
(g7
g2
Ntp1795
Rp1796
(dp1797
g11
(dp1798
g30
g0
(g7
g2
Ntp1799
Rp1800
(dp1801
g11
(dp1802
g47
g0
(g7
g2
Ntp1803
Rp1804
(dp1805
g11
(dp1806
sg28
S'ruan'
p1807
sbssg28
Nsbsg35
g0
(g7
g2
Ntp1808
Rp1809
(dp1810
g11
(dp1811
sg28
S'rui'
p1812
sbsg41
g0
(g7
g2
Ntp1813
Rp1814
(dp1815
g11
(dp1816
sg28
S'ruo'
p1817
sbsg47
g0
(g7
g2
Ntp1818
Rp1819
(dp1820
g11
(dp1821
sg28
S'run'
p1822
sbssg28
S'ru'
p1823
sbsg41
g0
(g7
g2
Ntp1824
Rp1825
(dp1826
g11
(dp1827
g159
g0
(g7
g2
Ntp1828
Rp1829
(dp1830
g11
(dp1831
sg28
S'rou'
p1832
sbsg47
g0
(g7
g2
Ntp1833
Rp1834
(dp1835
g11
(dp1836
g23
g0
(g7
g2
Ntp1837
Rp1838
(dp1839
g11
(dp1840
sg28
S'rong'
p1841
sbssg28
Nsbssg28
Nsbssg28
NsbsS't'
p1842
g0
(g7
g2
Ntp1843
Rp1844
(dp1845
g11
(dp1846
g30
g0
(g7
g2
Ntp1847
Rp1848
(dp1849
g11
(dp1850
g35
g0
(g7
g2
Ntp1851
Rp1852
(dp1853
g11
(dp1854
sg28
S'tai'
p1855
sbsg41
g0
(g7
g2
Ntp1856
Rp1857
(dp1858
g11
(dp1859
sg28
S'tao'
p1860
sbsg47
g0
(g7
g2
Ntp1861
Rp1862
(dp1863
g11
(dp1864
g23
g0
(g7
g2
Ntp1865
Rp1866
(dp1867
g11
(dp1868
sg28
S'tang'
p1869
sbssg28
S'tan'
p1870
sbssg28
S'ta'
p1871
sbsg35
g0
(g7
g2
Ntp1872
Rp1873
(dp1874
g11
(dp1875
g30
g0
(g7
g2
Ntp1876
Rp1877
(dp1878
g11
(dp1879
g41
g0
(g7
g2
Ntp1880
Rp1881
(dp1882
g11
(dp1883
sg28
S'tiao'
p1884
sbsg47
g0
(g7
g2
Ntp1885
Rp1886
(dp1887
g11
(dp1888
sg28
S'tian'
p1889
sbssg28
Nsbsg88
g0
(g7
g2
Ntp1890
Rp1891
(dp1892
g11
(dp1893
sg28
S'tie'
p1894
sbsg47
g0
(g7
g2
Ntp1895
Rp1896
(dp1897
g11
(dp1898
g23
g0
(g7
g2
Ntp1899
Rp1900
(dp1901
g11
(dp1902
sg28
S'ting'
p1903
sbssg28
Nsbssg28
S'ti'
p1904
sbsg88
g0
(g7
g2
Ntp1905
Rp1906
(dp1907
g11
(dp1908
g47
g0
(g7
g2
Ntp1909
Rp1910
(dp1911
g11
(dp1912
g23
g0
(g7
g2
Ntp1913
Rp1914
(dp1915
g11
(dp1916
sg28
S'teng'
p1917
sbssg28
Nsbssg28
S'te'
p1918
sbsg159
g0
(g7
g2
Ntp1919
Rp1920
(dp1921
g11
(dp1922
g30
g0
(g7
g2
Ntp1923
Rp1924
(dp1925
g11
(dp1926
g47
g0
(g7
g2
Ntp1927
Rp1928
(dp1929
g11
(dp1930
sg28
S'tuan'
p1931
sbssg28
Nsbsg35
g0
(g7
g2
Ntp1932
Rp1933
(dp1934
g11
(dp1935
sg28
S'tui'
p1936
sbsg41
g0
(g7
g2
Ntp1937
Rp1938
(dp1939
g11
(dp1940
sg28
S'tuo'
p1941
sbsg47
g0
(g7
g2
Ntp1942
Rp1943
(dp1944
g11
(dp1945
sg28
S'tun'
p1946
sbssg28
S'tu'
p1947
sbsg41
g0
(g7
g2
Ntp1948
Rp1949
(dp1950
g11
(dp1951
g159
g0
(g7
g2
Ntp1952
Rp1953
(dp1954
g11
(dp1955
sg28
S'tou'
p1956
sbsg47
g0
(g7
g2
Ntp1957
Rp1958
(dp1959
g11
(dp1960
g23
g0
(g7
g2
Ntp1961
Rp1962
(dp1963
g11
(dp1964
sg28
S'tong'
p1965
sbssg28
Nsbssg28
Nsbssg28
NsbsS'w'
p1966
g0
(g7
g2
Ntp1967
Rp1968
(dp1969
g11
(dp1970
g30
g0
(g7
g2
Ntp1971
Rp1972
(dp1973
g11
(dp1974
g35
g0
(g7
g2
Ntp1975
Rp1976
(dp1977
g11
(dp1978
sg28
S'wai'
p1979
sbsg47
g0
(g7
g2
Ntp1980
Rp1981
(dp1982
g11
(dp1983
g23
g0
(g7
g2
Ntp1984
Rp1985
(dp1986
g11
(dp1987
sg28
S'wang'
p1988
sbssg28
S'wan'
p1989
sbssg28
S'wa'
p1990
sbsg159
g0
(g7
g2
Ntp1991
Rp1992
(dp1993
g11
(dp1994
sg28
S'wu'
p1995
sbsg88
g0
(g7
g2
Ntp1996
Rp1997
(dp1998
g11
(dp1999
g35
g0
(g7
g2
Ntp2000
Rp2001
(dp2002
g11
(dp2003
sg28
S'wei'
p2004
sbsg47
g0
(g7
g2
Ntp2005
Rp2006
(dp2007
g11
(dp2008
g23
g0
(g7
g2
Ntp2009
Rp2010
(dp2011
g11
(dp2012
sg28
S'weng'
p2013
sbssg28
S'wen'
p2014
sbssg28
Nsbsg41
g0
(g7
g2
Ntp2015
Rp2016
(dp2017
g11
(dp2018
sg28
S'wo'
p2019
sbssg28
Nsbsg1502
g0
(g7
g2
Ntp2020
Rp2021
(dp2022
g11
(dp2023
g30
g0
(g7
g2
Ntp2024
Rp2025
(dp2026
g11
(dp2027
g41
g0
(g7
g2
Ntp2028
Rp2029
(dp2030
g11
(dp2031
sg28
S'yao'
p2032
sbsg47
g0
(g7
g2
Ntp2033
Rp2034
(dp2035
g11
(dp2036
g23
g0
(g7
g2
Ntp2037
Rp2038
(dp2039
g11
(dp2040
sg28
S'yang'
p2041
sbssg28
S'yan'
p2042
sbssg28
S'ya'
p2043
sbsg35
g0
(g7
g2
Ntp2044
Rp2045
(dp2046
g11
(dp2047
g47
g0
(g7
g2
Ntp2048
Rp2049
(dp2050
g11
(dp2051
g23
g0
(g7
g2
Ntp2052
Rp2053
(dp2054
g11
(dp2055
sg28
S'ying'
p2056
sbssg28
S'yin'
p2057
sbssg28
S'yi'
p2058
sbsg88
g0
(g7
g2
Ntp2059
Rp2060
(dp2061
g11
(dp2062
sg28
S'ye'
p2063
sbsg159
g0
(g7
g2
Ntp2064
Rp2065
(dp2066
g11
(dp2067
g30
g0
(g7
g2
Ntp2068
Rp2069
(dp2070
g11
(dp2071
g47
g0
(g7
g2
Ntp2072
Rp2073
(dp2074
g11
(dp2075
sg28
S'yuan'
p2076
sbssg28
Nsbsg88
g0
(g7
g2
Ntp2077
Rp2078
(dp2079
g11
(dp2080
sg28
S'yue'
p2081
sbsg47
g0
(g7
g2
Ntp2082
Rp2083
(dp2084
g11
(dp2085
sg28
S'yun'
p2086
sbssg28
S'yu'
p2087
sbsg41
g0
(g7
g2
Ntp2088
Rp2089
(dp2090
g11
(dp2091
g159
g0
(g7
g2
Ntp2092
Rp2093
(dp2094
g11
(dp2095
sg28
S'you'
p2096
sbsg47
g0
(g7
g2
Ntp2097
Rp2098
(dp2099
g11
(dp2100
g23
g0
(g7
g2
Ntp2101
Rp2102
(dp2103
g11
(dp2104
sg28
S'yong'
p2105
sbssg28
Nsbssg28
S'yo'
p2106
sbssg28
NsbsS'x'
p2107
g0
(g7
g2
Ntp2108
Rp2109
(dp2110
g11
(dp2111
g35
g0
(g7
g2
Ntp2112
Rp2113
(dp2114
g11
(dp2115
g30
g0
(g7
g2
Ntp2116
Rp2117
(dp2118
g11
(dp2119
g41
g0
(g7
g2
Ntp2120
Rp2121
(dp2122
g11
(dp2123
sg28
S'xiao'
p2124
sbsg47
g0
(g7
g2
Ntp2125
Rp2126
(dp2127
g11
(dp2128
g23
g0
(g7
g2
Ntp2129
Rp2130
(dp2131
g11
(dp2132
sg28
S'xiang'
p2133
sbssg28
S'xian'
p2134
sbssg28
S'xia'
p2135
sbsg159
g0
(g7
g2
Ntp2136
Rp2137
(dp2138
g11
(dp2139
sg28
S'xiu'
p2140
sbsg88
g0
(g7
g2
Ntp2141
Rp2142
(dp2143
g11
(dp2144
sg28
S'xie'
p2145
sbsg41
g0
(g7
g2
Ntp2146
Rp2147
(dp2148
g11
(dp2149
g47
g0
(g7
g2
Ntp2150
Rp2151
(dp2152
g11
(dp2153
g23
g0
(g7
g2
Ntp2154
Rp2155
(dp2156
g11
(dp2157
sg28
S'xiong'
p2158
sbssg28
Nsbssg28
Nsbsg47
g0
(g7
g2
Ntp2159
Rp2160
(dp2161
g11
(dp2162
g23
g0
(g7
g2
Ntp2163
Rp2164
(dp2165
g11
(dp2166
sg28
S'xing'
p2167
sbssg28
S'xin'
p2168
sbssg28
S'xi'
p2169
sbsg159
g0
(g7
g2
Ntp2170
Rp2171
(dp2172
g11
(dp2173
g30
g0
(g7
g2
Ntp2174
Rp2175
(dp2176
g11
(dp2177
g47
g0
(g7
g2
Ntp2178
Rp2179
(dp2180
g11
(dp2181
sg28
S'xuan'
p2182
sbssg28
Nsbsg88
g0
(g7
g2
Ntp2183
Rp2184
(dp2185
g11
(dp2186
sg28
S'xue'
p2187
sbsg47
g0
(g7
g2
Ntp2188
Rp2189
(dp2190
g11
(dp2191
sg28
S'xun'
p2192
sbssg28
S'xu'
p2193
sbssg28
NsbsS'z'
p2194
g0
(g7
g2
Ntp2195
Rp2196
(dp2197
g11
(dp2198
g30
g0
(g7
g2
Ntp2199
Rp2200
(dp2201
g11
(dp2202
g35
g0
(g7
g2
Ntp2203
Rp2204
(dp2205
g11
(dp2206
sg28
S'zai'
p2207
sbsg41
g0
(g7
g2
Ntp2208
Rp2209
(dp2210
g11
(dp2211
sg28
S'zao'
p2212
sbsg47
g0
(g7
g2
Ntp2213
Rp2214
(dp2215
g11
(dp2216
g23
g0
(g7
g2
Ntp2217
Rp2218
(dp2219
g11
(dp2220
sg28
S'zang'
p2221
sbssg28
S'zan'
p2222
sbssg28
S'za'
p2223
sbsg88
g0
(g7
g2
Ntp2224
Rp2225
(dp2226
g11
(dp2227
g35
g0
(g7
g2
Ntp2228
Rp2229
(dp2230
g11
(dp2231
sg28
S'zei'
p2232
sbsg47
g0
(g7
g2
Ntp2233
Rp2234
(dp2235
g11
(dp2236
g23
g0
(g7
g2
Ntp2237
Rp2238
(dp2239
g11
(dp2240
sg28
S'zeng'
p2241
sbssg28
S'zen'
p2242
sbssg28
S'ze'
p2243
sbsg35
g0
(g7
g2
Ntp2244
Rp2245
(dp2246
g11
(dp2247
sg28
S'zi'
p2248
sbsg109
g0
(g7
g2
Ntp2249
Rp2250
(dp2251
g11
(dp2252
g30
g0
(g7
g2
Ntp2253
Rp2254
(dp2255
g11
(dp2256
g35
g0
(g7
g2
Ntp2257
Rp2258
(dp2259
g11
(dp2260
sg28
S'zhai'
p2261
sbsg41
g0
(g7
g2
Ntp2262
Rp2263
(dp2264
g11
(dp2265
sg28
S'zhao'
p2266
sbsg47
g0
(g7
g2
Ntp2267
Rp2268
(dp2269
g11
(dp2270
g23
g0
(g7
g2
Ntp2271
Rp2272
(dp2273
g11
(dp2274
sg28
S'zhang'
p2275
sbssg28
S'zhan'
p2276
sbssg28
S'zha'
p2277
sbsg35
g0
(g7
g2
Ntp2278
Rp2279
(dp2280
g11
(dp2281
sg28
S'zhi'
p2282
sbsg88
g0
(g7
g2
Ntp2283
Rp2284
(dp2285
g11
(dp2286
g47
g0
(g7
g2
Ntp2287
Rp2288
(dp2289
g11
(dp2290
g23
g0
(g7
g2
Ntp2291
Rp2292
(dp2293
g11
(dp2294
sg28
S'zheng'
p2295
sbssg28
S'zhen'
p2296
sbssg28
S'zhe'
p2297
sbsg159
g0
(g7
g2
Ntp2298
Rp2299
(dp2300
g11
(dp2301
g30
g0
(g7
g2
Ntp2302
Rp2303
(dp2304
g11
(dp2305
g35
g0
(g7
g2
Ntp2306
Rp2307
(dp2308
g11
(dp2309
sg28
S'zhuai'
p2310
sbsg47
g0
(g7
g2
Ntp2311
Rp2312
(dp2313
g11
(dp2314
g23
g0
(g7
g2
Ntp2315
Rp2316
(dp2317
g11
(dp2318
sg28
S'zhuang'
p2319
sbssg28
S'zhuan'
p2320
sbssg28
S'zhua'
p2321
sbsg35
g0
(g7
g2
Ntp2322
Rp2323
(dp2324
g11
(dp2325
sg28
S'zhui'
p2326
sbsg41
g0
(g7
g2
Ntp2327
Rp2328
(dp2329
g11
(dp2330
sg28
S'zhuo'
p2331
sbsg47
g0
(g7
g2
Ntp2332
Rp2333
(dp2334
g11
(dp2335
sg28
S'zhun'
p2336
sbssg28
S'zhu'
p2337
sbsg41
g0
(g7
g2
Ntp2338
Rp2339
(dp2340
g11
(dp2341
g159
g0
(g7
g2
Ntp2342
Rp2343
(dp2344
g11
(dp2345
sg28
S'zhou'
p2346
sbsg47
g0
(g7
g2
Ntp2347
Rp2348
(dp2349
g11
(dp2350
g23
g0
(g7
g2
Ntp2351
Rp2352
(dp2353
g11
(dp2354
sg28
S'zhong'
p2355
sbssg28
Nsbssg28
Nsbssg28
Nsbsg41
g0
(g7
g2
Ntp2356
Rp2357
(dp2358
g11
(dp2359
g159
g0
(g7
g2
Ntp2360
Rp2361
(dp2362
g11
(dp2363
sg28
S'zou'
p2364
sbsg47
g0
(g7
g2
Ntp2365
Rp2366
(dp2367
g11
(dp2368
g23
g0
(g7
g2
Ntp2369
Rp2370
(dp2371
g11
(dp2372
sg28
S'zong'
p2373
sbssg28
Nsbssg28
Nsbsg159
g0
(g7
g2
Ntp2374
Rp2375
(dp2376
g11
(dp2377
g30
g0
(g7
g2
Ntp2378
Rp2379
(dp2380
g11
(dp2381
g47
g0
(g7
g2
Ntp2382
Rp2383
(dp2384
g11
(dp2385
sg28
S'zuan'
p2386
sbssg28
Nsbsg35
g0
(g7
g2
Ntp2387
Rp2388
(dp2389
g11
(dp2390
sg28
S'zui'
p2391
sbsg41
g0
(g7
g2
Ntp2392
Rp2393
(dp2394
g11
(dp2395
sg28
S'zuo'
p2396
sbsg47
g0
(g7
g2
Ntp2397
Rp2398
(dp2399
g11
(dp2400
sg28
S'zun'
p2401
sbssg28
S'zu'
p2402
sbssg28
Nsbssg28
Nsbsb.