ccopy_reg
_reconstructor
p1
(cpinyinSplit.pinyinSplit
Trie
p2
c__builtin__
object
p3
NtRp4
(dp5
S'root'
p6
g1
(cpinyinSplit.pinyinSplit
TrieNode
p7
g3
NtRp8
(dp9
S'children'
p10
(dp11
S'\xc7'
g1
(g7
g3
NtRp12
(dp13
g10
(dp14
S'\xb9'
g1
(g7
g3
NtRp15
(dp16
g10
(dp17
S'g'
g1
(g7
g3
NtRp18
(dp19
g10
(dp20
sS'value'
p21
S'\xc7\xb9g'
p22
sbssg21
Nsbssg21
NsbsS'a'
g1
(g7
g3
NtRp23
(dp24
g10
(dp25
S'i'
g1
(g7
g3
NtRp26
(dp27
g10
(dp28
sg21
S'ai'
p29
sbsS'o'
g1
(g7
g3
NtRp30
(dp31
g10
(dp32
sg21
S'ao'
p33
sbsS'n'
g1
(g7
g3
NtRp34
(dp35
g10
(dp36
S'g'
g1
(g7
g3
NtRp37
(dp38
g10
(dp39
sg21
S'ang'
p40
sbssg21
S'an'
p41
sbssg21
S'a'
sbsS'c'
g1
(g7
g3
NtRp42
(dp43
g10
(dp44
S'a'
g1
(g7
g3
NtRp45
(dp46
g10
(dp47
S'i'
g1
(g7
g3
NtRp48
(dp49
g10
(dp50
sg21
S'cai'
p51
sbsS'o'
g1
(g7
g3
NtRp52
(dp53
g10
(dp54
sg21
S'cao'
p55
sbsS'n'
g1
(g7
g3
NtRp56
(dp57
g10
(dp58
S'g'
g1
(g7
g3
NtRp59
(dp60
g10
(dp61
sg21
S'cang'
p62
sbssg21
S'can'
p63
sbssg21
S'ca'
p64
sbsS'e'
g1
(g7
g3
NtRp65
(dp66
g10
(dp67
S'n'
g1
(g7
g3
NtRp68
(dp69
g10
(dp70
S'g'
g1
(g7
g3
NtRp71
(dp72
g10
(dp73
sg21
S'ceng'
p74
sbssg21
S'cen'
p75
sbssg21
S'ce'
p76
sbsS'i'
g1
(g7
g3
NtRp77
(dp78
g10
(dp79
sg21
S'ci'
p80
sbsS'h'
g1
(g7
g3
NtRp81
(dp82
g10
(dp83
S'a'
g1
(g7
g3
NtRp84
(dp85
g10
(dp86
S'i'
g1
(g7
g3
NtRp87
(dp88
g10
(dp89
sg21
S'chai'
p90
sbsS'o'
g1
(g7
g3
NtRp91
(dp92
g10
(dp93
sg21
S'chao'
p94
sbsS'n'
g1
(g7
g3
NtRp95
(dp96
g10
(dp97
S'g'
g1
(g7
g3
NtRp98
(dp99
g10
(dp100
sg21
S'chang'
p101
sbssg21
S'chan'
p102
sbssg21
S'cha'
p103
sbsS'i'
g1
(g7
g3
NtRp104
(dp105
g10
(dp106
sg21
S'chi'
p107
sbsS'e'
g1
(g7
g3
NtRp108
(dp109
g10
(dp110
S'n'
g1
(g7
g3
NtRp111
(dp112
g10
(dp113
S'g'
g1
(g7
g3
NtRp114
(dp115
g10
(dp116
sg21
S'cheng'
p117
sbssg21
S'chen'
p118
sbssg21
S'che'
p119
sbsS'u'
g1
(g7
g3
NtRp120
(dp121
g10
(dp122
S'a'
g1
(g7
g3
NtRp123
(dp124
g10
(dp125
S'i'
g1
(g7
g3
NtRp126
(dp127
g10
(dp128
sg21
S'chuai'
p129
sbsS'n'
g1
(g7
g3
NtRp130
(dp131
g10
(dp132
S'g'
g1
(g7
g3
NtRp133
(dp134
g10
(dp135
sg21
S'chuang'
p136
sbssg21
S'chuan'
p137
sbssg21
NsbsS'i'
g1
(g7
g3
NtRp138
(dp139
g10
(dp140
sg21
S'chui'
p141
sbsS'o'
g1
(g7
g3
NtRp142
(dp143
g10
(dp144
sg21
S'chuo'
p145
sbsS'n'
g1
(g7
g3
NtRp146
(dp147
g10
(dp148
sg21
S'chun'
p149
sbssg21
S'chu'
p150
sbsS'o'
g1
(g7
g3
NtRp151
(dp152
g10
(dp153
S'u'
g1
(g7
g3
NtRp154
(dp155
g10
(dp156
sg21
S'chou'
p157
sbsS'n'
g1
(g7
g3
NtRp158
(dp159
g10
(dp160
S'g'
g1
(g7
g3
NtRp161
(dp162
g10
(dp163
sg21
S'chong'
p164
sbssg21
Nsbssg21
Nsbssg21
NsbsS'o'
g1
(g7
g3
NtRp165
(dp166
g10
(dp167
S'u'
g1
(g7
g3
NtRp168
(dp169
g10
(dp170
sg21
S'cou'
p171
sbsS'n'
g1
(g7
g3
NtRp172
(dp173
g10
(dp174
S'g'
g1
(g7
g3
NtRp175
(dp176
g10
(dp177
sg21
S'cong'
p178
sbssg21
Nsbssg21
NsbsS'u'
g1
(g7
g3
NtRp179
(dp180
g10
(dp181
S'a'
g1
(g7
g3
NtRp182
(dp183
g10
(dp184
S'n'
g1
(g7
g3
NtRp185
(dp186
g10
(dp187
sg21
S'cuan'
p188
sbssg21
NsbsS'i'
g1
(g7
g3
NtRp189
(dp190
g10
(dp191
sg21
S'cui'
p192
sbsS'o'
g1
(g7
g3
NtRp193
(dp194
g10
(dp195
sg21
S'cuo'
p196
sbsS'n'
g1
(g7
g3
NtRp197
(dp198
g10
(dp199
sg21
S'cun'
p200
sbssg21
S'cu'
p201
sbssg21
NsbsS'b'
g1
(g7
g3
NtRp202
(dp203
g10
(dp204
S'a'
g1
(g7
g3
NtRp205
(dp206
g10
(dp207
S'i'
g1
(g7
g3
NtRp208
(dp209
g10
(dp210
sg21
S'bai'
p211
sbsS'o'
g1
(g7
g3
NtRp212
(dp213
g10
(dp214
sg21
S'bao'
p215
sbsS'n'
g1
(g7
g3
NtRp216
(dp217
g10
(dp218
S'g'
g1
(g7
g3
NtRp219
(dp220
g10
(dp221
sg21
S'bang'
p222
sbssg21
S'ban'
p223
sbssg21
S'ba'
p224
sbsS'i'
g1
(g7
g3
NtRp225
(dp226
g10
(dp227
S'a'
g1
(g7
g3
NtRp228
(dp229
g10
(dp230
S'o'
g1
(g7
g3
NtRp231
(dp232
g10
(dp233
sg21
S'biao'
p234
sbsS'n'
g1
(g7
g3
NtRp235
(dp236
g10
(dp237
sg21
S'bian'
p238
sbssg21
NsbsS'e'
g1
(g7
g3
NtRp239
(dp240
g10
(dp241
sg21
S'bie'
p242
sbsS'n'
g1
(g7
g3
NtRp243
(dp244
g10
(dp245
S'g'
g1
(g7
g3
NtRp246
(dp247
g10
(dp248
sg21
S'bing'
p249
sbssg21
S'bin'
p250
sbssg21
S'bi'
p251
sbsS'e'
g1
(g7
g3
NtRp252
(dp253
g10
(dp254
S'i'
g1
(g7
g3
NtRp255
(dp256
g10
(dp257
sg21
S'bei'
p258
sbsS'n'
g1
(g7
g3
NtRp259
(dp260
g10
(dp261
S'g'
g1
(g7
g3
NtRp262
(dp263
g10
(dp264
sg21
S'beng'
p265
sbssg21
S'ben'
p266
sbssg21
NsbsS'u'
g1
(g7
g3
NtRp267
(dp268
g10
(dp269
sg21
S'bu'
p270
sbsS'o'
g1
(g7
g3
NtRp271
(dp272
g10
(dp273
sg21
S'bo'
p274
sbssg21
NsbsS'e'
g1
(g7
g3
NtRp275
(dp276
g10
(dp277
S'i'
g1
(g7
g3
NtRp278
(dp279
g10
(dp280
sg21
S'ei'
p281
sbsS'r'
g1
(g7
g3
NtRp282
(dp283
g10
(dp284
sg21
S'er'
p285
sbsS'n'
g1
(g7
g3
NtRp286
(dp287
g10
(dp288
sg21
S'en'
p289
sbssg21
S'e'
sbsS'd'
g1
(g7
g3
NtRp290
(dp291
g10
(dp292
S'a'
g1
(g7
g3
NtRp293
(dp294
g10
(dp295
S'i'
g1
(g7
g3
NtRp296
(dp297
g10
(dp298
sg21
S'dai'
p299
sbsS'o'
g1
(g7
g3
NtRp300
(dp301
g10
(dp302
sg21
S'dao'
p303
sbsS'n'
g1
(g7
g3
NtRp304
(dp305
g10
(dp306
S'g'
g1
(g7
g3
NtRp307
(dp308
g10
(dp309
sg21
S'dang'
p310
sbssg21
S'dan'
p311
sbssg21
S'da'
p312
sbsS'i'
g1
(g7
g3
NtRp313
(dp314
g10
(dp315
S'a'
g1
(g7
g3
NtRp316
(dp317
g10
(dp318
S'o'
g1
(g7
g3
NtRp319
(dp320
g10
(dp321
sg21
S'diao'
p322
sbsS'n'
g1
(g7
g3
NtRp323
(dp324
g10
(dp325
sg21
S'dian'
p326
sbssg21
S'dia'
p327
sbsS'u'
g1
(g7
g3
NtRp328
(dp329
g10
(dp330
sg21
S'diu'
p331
sbsS'e'
g1
(g7
g3
NtRp332
(dp333
g10
(dp334
sg21
S'die'
p335
sbsS'n'
g1
(g7
g3
NtRp336
(dp337
g10
(dp338
S'g'
g1
(g7
g3
NtRp339
(dp340
g10
(dp341
sg21
S'ding'
p342
sbssg21
Nsbssg21
S'di'
p343
sbsS'e'
g1
(g7
g3
NtRp344
(dp345
g10
(dp346
S'n'
g1
(g7
g3
NtRp347
(dp348
g10
(dp349
S'g'
g1
(g7
g3
NtRp350
(dp351
g10
(dp352
sg21
S'deng'
p353
sbssg21
Nsbssg21
S'de'
p354
sbsS'u'
g1
(g7
g3
NtRp355
(dp356
g10
(dp357
S'a'
g1
(g7
g3
NtRp358
(dp359
g10
(dp360
S'n'
g1
(g7
g3
NtRp361
(dp362
g10
(dp363
sg21
S'duan'
p364
sbssg21
NsbsS'i'
g1
(g7
g3
NtRp365
(dp366
g10
(dp367
sg21
S'dui'
p368
sbsS'o'
g1
(g7
g3
NtRp369
(dp370
g10
(dp371
sg21
S'duo'
p372
sbsS'n'
g1
(g7
g3
NtRp373
(dp374
g10
(dp375
sg21
S'dun'
p376
sbssg21
S'du'
p377
sbsS'o'
g1
(g7
g3
NtRp378
(dp379
g10
(dp380
S'u'
g1
(g7
g3
NtRp381
(dp382
g10
(dp383
sg21
S'dou'
p384
sbsS'n'
g1
(g7
g3
NtRp385
(dp386
g10
(dp387
S'g'
g1
(g7
g3
NtRp388
(dp389
g10
(dp390
sg21
S'dong'
p391
sbssg21
Nsbssg21
Nsbssg21
NsbsS'g'
g1
(g7
g3
NtRp392
(dp393
g10
(dp394
S'a'
g1
(g7
g3
NtRp395
(dp396
g10
(dp397
S'i'
g1
(g7
g3
NtRp398
(dp399
g10
(dp400
sg21
S'gai'
p401
sbsS'o'
g1
(g7
g3
NtRp402
(dp403
g10
(dp404
sg21
S'gao'
p405
sbsS'n'
g1
(g7
g3
NtRp406
(dp407
g10
(dp408
S'g'
g1
(g7
g3
NtRp409
(dp410
g10
(dp411
sg21
S'gang'
p412
sbssg21
S'gan'
p413
sbssg21
S'ga'
p414
sbsS'u'
g1
(g7
g3
NtRp415
(dp416
g10
(dp417
S'a'
g1
(g7
g3
NtRp418
(dp419
g10
(dp420
S'i'
g1
(g7
g3
NtRp421
(dp422
g10
(dp423
sg21
S'guai'
p424
sbsS'n'
g1
(g7
g3
NtRp425
(dp426
g10
(dp427
S'g'
g1
(g7
g3
NtRp428
(dp429
g10
(dp430
sg21
S'guang'
p431
sbssg21
S'guan'
p432
sbssg21
S'gua'
p433
sbsS'i'
g1
(g7
g3
NtRp434
(dp435
g10
(dp436
sg21
S'gui'
p437
sbsS'o'
g1
(g7
g3
NtRp438
(dp439
g10
(dp440
sg21
S'guo'
p441
sbsS'n'
g1
(g7
g3
NtRp442
(dp443
g10
(dp444
sg21
S'gun'
p445
sbssg21
S'gu'
p446
sbsS'e'
g1
(g7
g3
NtRp447
(dp448
g10
(dp449
S'i'
g1
(g7
g3
NtRp450
(dp451
g10
(dp452
sg21
S'gei'
p453
sbsS'n'
g1
(g7
g3
NtRp454
(dp455
g10
(dp456
S'g'
g1
(g7
g3
NtRp457
(dp458
g10
(dp459
sg21
S'geng'
p460
sbssg21
S'gen'
p461
sbssg21
S'ge'
p462
sbsS'o'
g1
(g7
g3
NtRp463
(dp464
g10
(dp465
S'u'
g1
(g7
g3
NtRp466
(dp467
g10
(dp468
sg21
S'gou'
p469
sbsS'n'
g1
(g7
g3
NtRp470
(dp471
g10
(dp472
S'g'
g1
(g7
g3
NtRp473
(dp474
g10
(dp475
sg21
S'gong'
p476
sbssg21
Nsbssg21
Nsbssg21
NsbsS'f'
g1
(g7
g3
NtRp477
(dp478
g10
(dp479
S'a'
g1
(g7
g3
NtRp480
(dp481
g10
(dp482
S'n'
g1
(g7
g3
NtRp483
(dp484
g10
(dp485
S'g'
g1
(g7
g3
NtRp486
(dp487
g10
(dp488
sg21
S'fang'
p489
sbssg21
S'fan'
p490
sbssg21
S'fa'
p491
sbsS'u'
g1
(g7
g3
NtRp492
(dp493
g10
(dp494
sg21
S'fu'
p495
sbsS'e'
g1
(g7
g3
NtRp496
(dp497
g10
(dp498
S'i'
g1
(g7
g3
NtRp499
(dp500
g10
(dp501
sg21
S'fei'
p502
sbsS'n'
g1
(g7
g3
NtRp503
(dp504
g10
(dp505
S'g'
g1
(g7
g3
NtRp506
(dp507
g10
(dp508
sg21
S'feng'
p509
sbssg21
S'fen'
p510
sbssg21
NsbsS'o'
g1
(g7
g3
NtRp511
(dp512
g10
(dp513
S'u'
g1
(g7
g3
NtRp514
(dp515
g10
(dp516
sg21
S'fou'
p517
sbssg21
S'fo'
p518
sbssg21
NsbsS'h'
g1
(g7
g3
NtRp519
(dp520
g10
(dp521
S'a'
g1
(g7
g3
NtRp522
(dp523
g10
(dp524
S'i'
g1
(g7
g3
NtRp525
(dp526
g10
(dp527
sg21
S'hai'
p528
sbsS'o'
g1
(g7
g3
NtRp529
(dp530
g10
(dp531
sg21
S'hao'
p532
sbsS'n'
g1
(g7
g3
NtRp533
(dp534
g10
(dp535
S'g'
g1
(g7
g3
NtRp536
(dp537
g10
(dp538
sg21
S'hang'
p539
sbssg21
S'han'
p540
sbssg21
S'ha'
p541
sbsS'u'
g1
(g7
g3
NtRp542
(dp543
g10
(dp544
S'a'
g1
(g7
g3
NtRp545
(dp546
g10
(dp547
S'i'
g1
(g7
g3
NtRp548
(dp549
g10
(dp550
sg21
S'huai'
p551
sbsS'n'
g1
(g7
g3
NtRp552
(dp553
g10
(dp554
S'g'
g1
(g7
g3
NtRp555
(dp556
g10
(dp557
sg21
S'huang'
p558
sbssg21
S'huan'
p559
sbssg21
S'hua'
p560
sbsS'i'
g1
(g7
g3
NtRp561
(dp562
g10
(dp563
sg21
S'hui'
p564
sbsS'o'
g1
(g7
g3
NtRp565
(dp566
g10
(dp567
sg21
S'huo'
p568
sbsS'n'
g1
(g7
g3
NtRp569
(dp570
g10
(dp571
sg21
S'hun'
p572
sbssg21
S'hu'
p573
sbsS'e'
g1
(g7
g3
NtRp574
(dp575
g10
(dp576
S'i'
g1
(g7
g3
NtRp577
(dp578
g10
(dp579
sg21
S'hei'
p580
sbsS'n'
g1
(g7
g3
NtRp581
(dp582
g10
(dp583
S'g'
g1
(g7
g3
NtRp584
(dp585
g10
(dp586
sg21
S'heng'
p587
sbssg21
S'hen'
p588
sbssg21
S'he'
p589
sbsS'o'
g1
(g7
g3
NtRp590
(dp591
g10
(dp592
S'u'
g1
(g7
g3
NtRp593
(dp594
g10
(dp595
sg21
S'hou'
p596
sbsS'n'
g1
(g7
g3
NtRp597
(dp598
g10
(dp599
S'g'
g1
(g7
g3
NtRp600
(dp601
g10
(dp602
sg21
S'hong'
p603
sbssg21
Nsbssg21
Nsbssg21
NsbsS'k'
g1
(g7
g3
NtRp604
(dp605
g10
(dp606
S'a'
g1
(g7
g3
NtRp607
(dp608
g10
(dp609
S'i'
g1
(g7
g3
NtRp610
(dp611
g10
(dp612
sg21
S'kai'
p613
sbsS'o'
g1
(g7
g3
NtRp614
(dp615
g10
(dp616
sg21
S'kao'
p617
sbsS'n'
g1
(g7
g3
NtRp618
(dp619
g10
(dp620
S'g'
g1
(g7
g3
NtRp621
(dp622
g10
(dp623
sg21
S'kang'
p624
sbssg21
S'kan'
p625
sbssg21
S'ka'
p626
sbsS'u'
g1
(g7
g3
NtRp627
(dp628
g10
(dp629
S'a'
g1
(g7
g3
NtRp630
(dp631
g10
(dp632
S'i'
g1
(g7
g3
NtRp633
(dp634
g10
(dp635
sg21
S'kuai'
p636
sbsS'n'
g1
(g7
g3
NtRp637
(dp638
g10
(dp639
S'g'
g1
(g7
g3
NtRp640
(dp641
g10
(dp642
sg21
S'kuang'
p643
sbssg21
S'kuan'
p644
sbssg21
S'kua'
p645
sbsS'i'
g1
(g7
g3
NtRp646
(dp647
g10
(dp648
sg21
S'kui'
p649
sbsS'o'
g1
(g7
g3
NtRp650
(dp651
g10
(dp652
sg21
S'kuo'
p653
sbsS'n'
g1
(g7
g3
NtRp654
(dp655
g10
(dp656
sg21
S'kun'
p657
sbssg21
S'ku'
p658
sbsS'e'
g1
(g7
g3
NtRp659
(dp660
g10
(dp661
S'n'
g1
(g7
g3
NtRp662
(dp663
g10
(dp664
S'g'
g1
(g7
g3
NtRp665
(dp666
g10
(dp667
sg21
S'keng'
p668
sbssg21
S'ken'
p669
sbssg21
S'ke'
p670
sbsS'o'
g1
(g7
g3
NtRp671
(dp672
g10
(dp673
S'u'
g1
(g7
g3
NtRp674
(dp675
g10
(dp676
sg21
S'kou'
p677
sbsS'n'
g1
(g7
g3
NtRp678
(dp679
g10
(dp680
S'g'
g1
(g7
g3
NtRp681
(dp682
g10
(dp683
sg21
S'kong'
p684
sbssg21
Nsbssg21
Nsbssg21
NsbsS'j'
g1
(g7
g3
NtRp685
(dp686
g10
(dp687
S'i'
g1
(g7
g3
NtRp688
(dp689
g10
(dp690
S'a'
g1
(g7
g3
NtRp691
(dp692
g10
(dp693
S'o'
g1
(g7
g3
NtRp694
(dp695
g10
(dp696
sg21
S'jiao'
p697
sbsS'n'
g1
(g7
g3
NtRp698
(dp699
g10
(dp700
S'g'
g1
(g7
g3
NtRp701
(dp702
g10
(dp703
sg21
S'jiang'
p704
sbssg21
S'jian'
p705
sbssg21
S'jia'
p706
sbsS'u'
g1
(g7
g3
NtRp707
(dp708
g10
(dp709
sg21
S'jiu'
p710
sbsS'e'
g1
(g7
g3
NtRp711
(dp712
g10
(dp713
sg21
S'jie'
p714
sbsS'o'
g1
(g7
g3
NtRp715
(dp716
g10
(dp717
S'n'
g1
(g7
g3
NtRp718
(dp719
g10
(dp720
S'g'
g1
(g7
g3
NtRp721
(dp722
g10
(dp723
sg21
S'jiong'
p724
sbssg21
Nsbssg21
NsbsS'n'
g1
(g7
g3
NtRp725
(dp726
g10
(dp727
S'g'
g1
(g7
g3
NtRp728
(dp729
g10
(dp730
sg21
S'jing'
p731
sbssg21
S'jin'
p732
sbssg21
S'ji'
p733
sbsS'u'
g1
(g7
g3
NtRp734
(dp735
g10
(dp736
S'a'
g1
(g7
g3
NtRp737
(dp738
g10
(dp739
S'n'
g1
(g7
g3
NtRp740
(dp741
g10
(dp742
sg21
S'juan'
p743
sbssg21
NsbsS'e'
g1
(g7
g3
NtRp744
(dp745
g10
(dp746
sg21
S'jue'
p747
sbsS'n'
g1
(g7
g3
NtRp748
(dp749
g10
(dp750
sg21
S'jun'
p751
sbssg21
S'ju'
p752
sbssg21
NsbsS'm'
g1
(g7
g3
NtRp753
(dp754
g10
(dp755
S'a'
g1
(g7
g3
NtRp756
(dp757
g10
(dp758
S'i'
g1
(g7
g3
NtRp759
(dp760
g10
(dp761
sg21
S'mai'
p762
sbsS'o'
g1
(g7
g3
NtRp763
(dp764
g10
(dp765
sg21
S'mao'
p766
sbsS'n'
g1
(g7
g3
NtRp767
(dp768
g10
(dp769
S'g'
g1
(g7
g3
NtRp770
(dp771
g10
(dp772
sg21
S'mang'
p773
sbssg21
S'man'
p774
sbssg21
S'ma'
p775
sbsS'i'
g1
(g7
g3
NtRp776
(dp777
g10
(dp778
S'a'
g1
(g7
g3
NtRp779
(dp780
g10
(dp781
S'o'
g1
(g7
g3
NtRp782
(dp783
g10
(dp784
sg21
S'miao'
p785
sbsS'n'
g1
(g7
g3
NtRp786
(dp787
g10
(dp788
sg21
S'mian'
p789
sbssg21
NsbsS'u'
g1
(g7
g3
NtRp790
(dp791
g10
(dp792
sg21
S'miu'
p793
sbsS'e'
g1
(g7
g3
NtRp794
(dp795
g10
(dp796
sg21
S'mie'
p797
sbsS'n'
g1
(g7
g3
NtRp798
(dp799
g10
(dp800
S'g'
g1
(g7
g3
NtRp801
(dp802
g10
(dp803
sg21
S'ming'
p804
sbssg21
S'min'
p805
sbssg21
S'mi'
p806
sbsS'e'
g1
(g7
g3
NtRp807
(dp808
g10
(dp809
S'i'
g1
(g7
g3
NtRp810
(dp811
g10
(dp812
sg21
S'mei'
p813
sbsS'n'
g1
(g7
g3
NtRp814
(dp815
g10
(dp816
S'g'
g1
(g7
g3
NtRp817
(dp818
g10
(dp819
sg21
S'meng'
p820
sbssg21
S'men'
p821
sbssg21
NsbsS'u'
g1
(g7
g3
NtRp822
(dp823
g10
(dp824
sg21
S'mu'
p825
sbsS'o'
g1
(g7
g3
NtRp826
(dp827
g10
(dp828
S'u'
g1
(g7
g3
NtRp829
(dp830
g10
(dp831
sg21
S'mou'
p832
sbssg21
S'mo'
p833
sbssg21
NsbsS'l'
g1
(g7
g3
NtRp834
(dp835
g10
(dp836
S'a'
g1
(g7
g3
NtRp837
(dp838
g10
(dp839
S'i'
g1
(g7
g3
NtRp840
(dp841
g10
(dp842
sg21
S'lai'
p843
sbsS'o'
g1
(g7
g3
NtRp844
(dp845
g10
(dp846
sg21
S'lao'
p847
sbsS'n'
g1
(g7
g3
NtRp848
(dp849
g10
(dp850
S'g'
g1
(g7
g3
NtRp851
(dp852
g10
(dp853
sg21
S'lang'
p854
sbssg21
S'lan'
p855
sbssg21
S'la'
p856
sbsS'e'
g1
(g7
g3
NtRp857
(dp858
g10
(dp859
S'i'
g1
(g7
g3
NtRp860
(dp861
g10
(dp862
sg21
S'lei'
p863
sbsS'n'
g1
(g7
g3
NtRp864
(dp865
g10
(dp866
S'g'
g1
(g7
g3
NtRp867
(dp868
g10
(dp869
sg21
S'leng'
p870
sbssg21
Nsbssg21
S'le'
p871
sbsS'i'
g1
(g7
g3
NtRp872
(dp873
g10
(dp874
S'a'
g1
(g7
g3
NtRp875
(dp876
g10
(dp877
S'o'
g1
(g7
g3
NtRp878
(dp879
g10
(dp880
sg21
S'liao'
p881
sbsS'n'
g1
(g7
g3
NtRp882
(dp883
g10
(dp884
S'g'
g1
(g7
g3
NtRp885
(dp886
g10
(dp887
sg21
S'liang'
p888
sbssg21
S'lian'
p889
sbssg21
NsbsS'u'
g1
(g7
g3
NtRp890
(dp891
g10
(dp892
sg21
S'liu'
p893
sbsS'e'
g1
(g7
g3
NtRp894
(dp895
g10
(dp896
sg21
S'lie'
p897
sbsS'n'
g1
(g7
g3
NtRp898
(dp899
g10
(dp900
S'g'
g1
(g7
g3
NtRp901
(dp902
g10
(dp903
sg21
S'ling'
p904
sbssg21
S'lin'
p905
sbssg21
S'li'
p906
sbsS'o'
g1
(g7
g3
NtRp907
(dp908
g10
(dp909
S'u'
g1
(g7
g3
NtRp910
(dp911
g10
(dp912
sg21
S'lou'
p913
sbsS'n'
g1
(g7
g3
NtRp914
(dp915
g10
(dp916
S'g'
g1
(g7
g3
NtRp917
(dp918
g10
(dp919
sg21
S'long'
p920
sbssg21
Nsbssg21
NsbsS'u'
g1
(g7
g3
NtRp921
(dp922
g10
(dp923
S'a'
g1
(g7
g3
NtRp924
(dp925
g10
(dp926
S'n'
g1
(g7
g3
NtRp927
(dp928
g10
(dp929
sg21
S'luan'
p930
sbssg21
NsbsS'o'
g1
(g7
g3
NtRp931
(dp932
g10
(dp933
sg21
S'luo'
p934
sbsS'n'
g1
(g7
g3
NtRp935
(dp936
g10
(dp937
sg21
S'lun'
p938
sbssg21
S'lu'
p939
sbsS'v'
g1
(g7
g3
NtRp940
(dp941
g10
(dp942
S'e'
g1
(g7
g3
NtRp943
(dp944
g10
(dp945
sg21
S'lve'
p946
sbssg21
S'lv'
p947
sbssg21
NsbsS'o'
g1
(g7
g3
NtRp948
(dp949
g10
(dp950
S'u'
g1
(g7
g3
NtRp951
(dp952
g10
(dp953
sg21
S'ou'
p954
sbssg21
S'o'
sbsS'n'
g1
(g7
g3
NtRp955
(dp956
g10
(dp957
S'a'
g1
(g7
g3
NtRp958
(dp959
g10
(dp960
S'i'
g1
(g7
g3
NtRp961
(dp962
g10
(dp963
sg21
S'nai'
p964
sbsS'o'
g1
(g7
g3
NtRp965
(dp966
g10
(dp967
sg21
S'nao'
p968
sbsS'n'
g1
(g7
g3
NtRp969
(dp970
g10
(dp971
S'g'
g1
(g7
g3
NtRp972
(dp973
g10
(dp974
sg21
S'nang'
p975
sbssg21
S'nan'
p976
sbssg21
S'na'
p977
sbsS'e'
g1
(g7
g3
NtRp978
(dp979
g10
(dp980
S'i'
g1
(g7
g3
NtRp981
(dp982
g10
(dp983
sg21
S'nei'
p984
sbsS'n'
g1
(g7
g3
NtRp985
(dp986
g10
(dp987
S'g'
g1
(g7
g3
NtRp988
(dp989
g10
(dp990
sg21
S'neng'
p991
sbssg21
S'nen'
p992
sbssg21
S'ne'
p993
sbsS'i'
g1
(g7
g3
NtRp994
(dp995
g10
(dp996
S'a'
g1
(g7
g3
NtRp997
(dp998
g10
(dp999
S'o'
g1
(g7
g3
NtRp1000
(dp1001
g10
(dp1002
sg21
S'niao'
p1003
sbsS'n'
g1
(g7
g3
NtRp1004
(dp1005
g10
(dp1006
S'g'
g1
(g7
g3
NtRp1007
(dp1008
g10
(dp1009
sg21
S'niang'
p1010
sbssg21
S'nian'
p1011
sbssg21
NsbsS'u'
g1
(g7
g3
NtRp1012
(dp1013
g10
(dp1014
sg21
S'niu'
p1015
sbsS'e'
g1
(g7
g3
NtRp1016
(dp1017
g10
(dp1018
sg21
S'nie'
p1019
sbsS'n'
g1
(g7
g3
NtRp1020
(dp1021
g10
(dp1022
S'g'
g1
(g7
g3
NtRp1023
(dp1024
g10
(dp1025
sg21
S'ning'
p1026
sbssg21
S'nin'
p1027
sbssg21
S'ni'
p1028
sbsS'o'
g1
(g7
g3
NtRp1029
(dp1030
g10
(dp1031
S'n'
g1
(g7
g3
NtRp1032
(dp1033
g10
(dp1034
S'g'
g1
(g7
g3
NtRp1035
(dp1036
g10
(dp1037
sg21
S'nong'
p1038
sbssg21
Nsbssg21
NsbsS'u'
g1
(g7
g3
NtRp1039
(dp1040
g10
(dp1041
S'a'
g1
(g7
g3
NtRp1042
(dp1043
g10
(dp1044
S'n'
g1
(g7
g3
NtRp1045
(dp1046
g10
(dp1047
sg21
S'nuan'
p1048
sbssg21
NsbsS'o'
g1
(g7
g3
NtRp1049
(dp1050
g10
(dp1051
sg21
S'nuo'
p1052
sbssg21
S'nu'
p1053
sbsS'v'
g1
(g7
g3
NtRp1054
(dp1055
g10
(dp1056
S'e'
g1
(g7
g3
NtRp1057
(dp1058
g10
(dp1059
sg21
S'nve'
p1060
sbssg21
S'nv'
p1061
sbssg21
NsbsS'q'
g1
(g7
g3
NtRp1062
(dp1063
g10
(dp1064
S'i'
g1
(g7
g3
NtRp1065
(dp1066
g10
(dp1067
S'a'
g1
(g7
g3
NtRp1068
(dp1069
g10
(dp1070
S'o'
g1
(g7
g3
NtRp1071
(dp1072
g10
(dp1073
sg21
S'qiao'
p1074
sbsS'n'
g1
(g7
g3
NtRp1075
(dp1076
g10
(dp1077
S'g'
g1
(g7
g3
NtRp1078
(dp1079
g10
(dp1080
sg21
S'qiang'
p1081
sbssg21
S'qian'
p1082
sbssg21
S'qia'
p1083
sbsS'u'
g1
(g7
g3
NtRp1084
(dp1085
g10
(dp1086
sg21
S'qiu'
p1087
sbsS'e'
g1
(g7
g3
NtRp1088
(dp1089
g10
(dp1090
sg21
S'qie'
p1091
sbsS'o'
g1
(g7
g3
NtRp1092
(dp1093
g10
(dp1094
S'n'
g1
(g7
g3
NtRp1095
(dp1096
g10
(dp1097
S'g'
g1
(g7
g3
NtRp1098
(dp1099
g10
(dp1100
sg21
S'qiong'
p1101
sbssg21
Nsbssg21
NsbsS'n'
g1
(g7
g3
NtRp1102
(dp1103
g10
(dp1104
S'g'
g1
(g7
g3
NtRp1105
(dp1106
g10
(dp1107
sg21
S'qing'
p1108
sbssg21
S'qin'
p1109
sbssg21
S'qi'
p1110
sbsS'u'
g1
(g7
g3
NtRp1111
(dp1112
g10
(dp1113
S'a'
g1
(g7
g3
NtRp1114
(dp1115
g10
(dp1116
S'n'
g1
(g7
g3
NtRp1117
(dp1118
g10
(dp1119
sg21
S'quan'
p1120
sbssg21
NsbsS'e'
g1
(g7
g3
NtRp1121
(dp1122
g10
(dp1123
sg21
S'que'
p1124
sbsS'n'
g1
(g7
g3
NtRp1125
(dp1126
g10
(dp1127
sg21
S'qun'
p1128
sbssg21
S'qu'
p1129
sbssg21
NsbsS'p'
g1
(g7
g3
NtRp1130
(dp1131
g10
(dp1132
S'a'
g1
(g7
g3
NtRp1133
(dp1134
g10
(dp1135
S'i'
g1
(g7
g3
NtRp1136
(dp1137
g10
(dp1138
sg21
S'pai'
p1139
sbsS'o'
g1
(g7
g3
NtRp1140
(dp1141
g10
(dp1142
sg21
S'pao'
p1143
sbsS'n'
g1
(g7
g3
NtRp1144
(dp1145
g10
(dp1146
S'g'
g1
(g7
g3
NtRp1147
(dp1148
g10
(dp1149
sg21
S'pang'
p1150
sbssg21
S'pan'
p1151
sbssg21
S'pa'
p1152
sbsS'i'
g1
(g7
g3
NtRp1153
(dp1154
g10
(dp1155
S'a'
g1
(g7
g3
NtRp1156
(dp1157
g10
(dp1158
S'o'
g1
(g7
g3
NtRp1159
(dp1160
g10
(dp1161
sg21
S'piao'
p1162
sbsS'n'
g1
(g7
g3
NtRp1163
(dp1164
g10
(dp1165
sg21
S'pian'
p1166
sbssg21
NsbsS'e'
g1
(g7
g3
NtRp1167
(dp1168
g10
(dp1169
sg21
S'pie'
p1170
sbsS'n'
g1
(g7
g3
NtRp1171
(dp1172
g10
(dp1173
S'y'
g1
(g7
g3
NtRp1174
(dp1175
g10
(dp1176
S'i'
g1
(g7
g3
NtRp1177
(dp1178
g10
(dp1179
S'n'
g1
(g7
g3
NtRp1180
(dp1181
g10
(dp1182
sg21
S'pinyin'
p1183
sbssg21
Nsbssg21
NsbsS'g'
g1
(g7
g3
NtRp1184
(dp1185
g10
(dp1186
sg21
S'ping'
p1187
sbssg21
S'pin'
p1188
sbssg21
S'pi'
p1189
sbsS'e'
g1
(g7
g3
NtRp1190
(dp1191
g10
(dp1192
S'i'
g1
(g7
g3
NtRp1193
(dp1194
g10
(dp1195
sg21
S'pei'
p1196
sbsS'n'
g1
(g7
g3
NtRp1197
(dp1198
g10
(dp1199
S'g'
g1
(g7
g3
NtRp1200
(dp1201
g10
(dp1202
sg21
S'peng'
p1203
sbssg21
S'pen'
p1204
sbssg21
NsbsS'u'
g1
(g7
g3
NtRp1205
(dp1206
g10
(dp1207
sg21
S'pu'
p1208
sbsS'o'
g1
(g7
g3
NtRp1209
(dp1210
g10
(dp1211
S'u'
g1
(g7
g3
NtRp1212
(dp1213
g10
(dp1214
sg21
S'pou'
p1215
sbssg21
S'po'
p1216
sbssg21
NsbsS's'
g1
(g7
g3
NtRp1217
(dp1218
g10
(dp1219
S'a'
g1
(g7
g3
NtRp1220
(dp1221
g10
(dp1222
S'i'
g1
(g7
g3
NtRp1223
(dp1224
g10
(dp1225
sg21
S'sai'
p1226
sbsS'o'
g1
(g7
g3
NtRp1227
(dp1228
g10
(dp1229
sg21
S'sao'
p1230
sbsS'n'
g1
(g7
g3
NtRp1231
(dp1232
g10
(dp1233
S'g'
g1
(g7
g3
NtRp1234
(dp1235
g10
(dp1236
sg21
S'sang'
p1237
sbssg21
S'san'
p1238
sbssg21
S'sa'
p1239
sbsS'e'
g1
(g7
g3
NtRp1240
(dp1241
g10
(dp1242
S'n'
g1
(g7
g3
NtRp1243
(dp1244
g10
(dp1245
S'g'
g1
(g7
g3
NtRp1246
(dp1247
g10
(dp1248
sg21
S'seng'
p1249
sbssg21
S'sen'
p1250
sbssg21
S'se'
p1251
sbsS'i'
g1
(g7
g3
NtRp1252
(dp1253
g10
(dp1254
sg21
S'si'
p1255
sbsS'h'
g1
(g7
g3
NtRp1256
(dp1257
g10
(dp1258
S'a'
g1
(g7
g3
NtRp1259
(dp1260
g10
(dp1261
S'i'
g1
(g7
g3
NtRp1262
(dp1263
g10
(dp1264
sg21
S'shai'
p1265
sbsS'o'
g1
(g7
g3
NtRp1266
(dp1267
g10
(dp1268
sg21
S'shao'
p1269
sbsS'n'
g1
(g7
g3
NtRp1270
(dp1271
g10
(dp1272
S'g'
g1
(g7
g3
NtRp1273
(dp1274
g10
(dp1275
sg21
S'shang'
p1276
sbssg21
S'shan'
p1277
sbssg21
S'sha'
p1278
sbsS'i'
g1
(g7
g3
NtRp1279
(dp1280
g10
(dp1281
sg21
S'shi'
p1282
sbsS'e'
g1
(g7
g3
NtRp1283
(dp1284
g10
(dp1285
S'n'
g1
(g7
g3
NtRp1286
(dp1287
g10
(dp1288
S'g'
g1
(g7
g3
NtRp1289
(dp1290
g10
(dp1291
sg21
S'sheng'
p1292
sbssg21
S'shen'
p1293
sbssg21
S'she'
p1294
sbsS'u'
g1
(g7
g3
NtRp1295
(dp1296
g10
(dp1297
S'a'
g1
(g7
g3
NtRp1298
(dp1299
g10
(dp1300
S'i'
g1
(g7
g3
NtRp1301
(dp1302
g10
(dp1303
sg21
S'shuai'
p1304
sbsS'n'
g1
(g7
g3
NtRp1305
(dp1306
g10
(dp1307
S'g'
g1
(g7
g3
NtRp1308
(dp1309
g10
(dp1310
sg21
S'shuang'
p1311
sbssg21
S'shuan'
p1312
sbssg21
S'shua'
p1313
sbsS'i'
g1
(g7
g3
NtRp1314
(dp1315
g10
(dp1316
sg21
S'shui'
p1317
sbsS'o'
g1
(g7
g3
NtRp1318
(dp1319
g10
(dp1320
sg21
S'shuo'
p1321
sbsS'n'
g1
(g7
g3
NtRp1322
(dp1323
g10
(dp1324
sg21
S'shun'
p1325
sbssg21
S'shu'
p1326
sbsS'o'
g1
(g7
g3
NtRp1327
(dp1328
g10
(dp1329
S'u'
g1
(g7
g3
NtRp1330
(dp1331
g10
(dp1332
sg21
S'shou'
p1333
sbssg21
Nsbssg21
NsbsS'o'
g1
(g7
g3
NtRp1334
(dp1335
g10
(dp1336
S'u'
g1
(g7
g3
NtRp1337
(dp1338
g10
(dp1339
sg21
S'sou'
p1340
sbsS'n'
g1
(g7
g3
NtRp1341
(dp1342
g10
(dp1343
S'g'
g1
(g7
g3
NtRp1344
(dp1345
g10
(dp1346
sg21
S'song'
p1347
sbssg21
Nsbssg21
NsbsS'u'
g1
(g7
g3
NtRp1348
(dp1349
g10
(dp1350
S'a'
g1
(g7
g3
NtRp1351
(dp1352
g10
(dp1353
S'n'
g1
(g7
g3
NtRp1354
(dp1355
g10
(dp1356
sg21
S'suan'
p1357
sbssg21
NsbsS'i'
g1
(g7
g3
NtRp1358
(dp1359
g10
(dp1360
sg21
S'sui'
p1361
sbsS'o'
g1
(g7
g3
NtRp1362
(dp1363
g10
(dp1364
sg21
S'suo'
p1365
sbsS'n'
g1
(g7
g3
NtRp1366
(dp1367
g10
(dp1368
sg21
S'sun'
p1369
sbssg21
S'su'
p1370
sbssg21
NsbsS'r'
g1
(g7
g3
NtRp1371
(dp1372
g10
(dp1373
S'a'
g1
(g7
g3
NtRp1374
(dp1375
g10
(dp1376
S'o'
g1
(g7
g3
NtRp1377
(dp1378
g10
(dp1379
sg21
S'rao'
p1380
sbsS'n'
g1
(g7
g3
NtRp1381
(dp1382
g10
(dp1383
S'g'
g1
(g7
g3
NtRp1384
(dp1385
g10
(dp1386
sg21
S'rang'
p1387
sbssg21
S'ran'
p1388
sbssg21
NsbsS'i'
g1
(g7
g3
NtRp1389
(dp1390
g10
(dp1391
sg21
S'ri'
p1392
sbsS'e'
g1
(g7
g3
NtRp1393
(dp1394
g10
(dp1395
S'n'
g1
(g7
g3
NtRp1396
(dp1397
g10
(dp1398
S'g'
g1
(g7
g3
NtRp1399
(dp1400
g10
(dp1401
sg21
S'reng'
p1402
sbssg21
S'ren'
p1403
sbssg21
S're'
p1404
sbsS'u'
g1
(g7
g3
NtRp1405
(dp1406
g10
(dp1407
S'a'
g1
(g7
g3
NtRp1408
(dp1409
g10
(dp1410
S'n'
g1
(g7
g3
NtRp1411
(dp1412
g10
(dp1413
sg21
S'ruan'
p1414
sbssg21
NsbsS'i'
g1
(g7
g3
NtRp1415
(dp1416
g10
(dp1417
sg21
S'rui'
p1418
sbsS'o'
g1
(g7
g3
NtRp1419
(dp1420
g10
(dp1421
sg21
S'ruo'
p1422
sbsS'n'
g1
(g7
g3
NtRp1423
(dp1424
g10
(dp1425
sg21
S'run'
p1426
sbssg21
S'ru'
p1427
sbsS'o'
g1
(g7
g3
NtRp1428
(dp1429
g10
(dp1430
S'u'
g1
(g7
g3
NtRp1431
(dp1432
g10
(dp1433
sg21
S'rou'
p1434
sbsS'n'
g1
(g7
g3
NtRp1435
(dp1436
g10
(dp1437
S'g'
g1
(g7
g3
NtRp1438
(dp1439
g10
(dp1440
sg21
S'rong'
p1441
sbssg21
Nsbssg21
Nsbssg21
NsbsS't'
g1
(g7
g3
NtRp1442
(dp1443
g10
(dp1444
S'a'
g1
(g7
g3
NtRp1445
(dp1446
g10
(dp1447
S'i'
g1
(g7
g3
NtRp1448
(dp1449
g10
(dp1450
sg21
S'tai'
p1451
sbsS'o'
g1
(g7
g3
NtRp1452
(dp1453
g10
(dp1454
sg21
S'tao'
p1455
sbsS'n'
g1
(g7
g3
NtRp1456
(dp1457
g10
(dp1458
S'g'
g1
(g7
g3
NtRp1459
(dp1460
g10
(dp1461
sg21
S'tang'
p1462
sbssg21
S'tan'
p1463
sbssg21
S'ta'
p1464
sbsS'i'
g1
(g7
g3
NtRp1465
(dp1466
g10
(dp1467
S'a'
g1
(g7
g3
NtRp1468
(dp1469
g10
(dp1470
S'o'
g1
(g7
g3
NtRp1471
(dp1472
g10
(dp1473
sg21
S'tiao'
p1474
sbsS'n'
g1
(g7
g3
NtRp1475
(dp1476
g10
(dp1477
sg21
S'tian'
p1478
sbssg21
NsbsS'e'
g1
(g7
g3
NtRp1479
(dp1480
g10
(dp1481
sg21
S'tie'
p1482
sbsS'n'
g1
(g7
g3
NtRp1483
(dp1484
g10
(dp1485
S'g'
g1
(g7
g3
NtRp1486
(dp1487
g10
(dp1488
sg21
S'ting'
p1489
sbssg21
Nsbssg21
S'ti'
p1490
sbsS'e'
g1
(g7
g3
NtRp1491
(dp1492
g10
(dp1493
S'n'
g1
(g7
g3
NtRp1494
(dp1495
g10
(dp1496
S'g'
g1
(g7
g3
NtRp1497
(dp1498
g10
(dp1499
sg21
S'teng'
p1500
sbssg21
Nsbssg21
S'te'
p1501
sbsS'u'
g1
(g7
g3
NtRp1502
(dp1503
g10
(dp1504
S'a'
g1
(g7
g3
NtRp1505
(dp1506
g10
(dp1507
S'n'
g1
(g7
g3
NtRp1508
(dp1509
g10
(dp1510
sg21
S'tuan'
p1511
sbssg21
NsbsS'i'
g1
(g7
g3
NtRp1512
(dp1513
g10
(dp1514
sg21
S'tui'
p1515
sbsS'o'
g1
(g7
g3
NtRp1516
(dp1517
g10
(dp1518
sg21
S'tuo'
p1519
sbsS'n'
g1
(g7
g3
NtRp1520
(dp1521
g10
(dp1522
sg21
S'tun'
p1523
sbssg21
S'tu'
p1524
sbsS'o'
g1
(g7
g3
NtRp1525
(dp1526
g10
(dp1527
S'u'
g1
(g7
g3
NtRp1528
(dp1529
g10
(dp1530
sg21
S'tou'
p1531
sbsS'n'
g1
(g7
g3
NtRp1532
(dp1533
g10
(dp1534
S'g'
g1
(g7
g3
NtRp1535
(dp1536
g10
(dp1537
sg21
S'tong'
p1538
sbssg21
Nsbssg21
Nsbssg21
NsbsS'w'
g1
(g7
g3
NtRp1539
(dp1540
g10
(dp1541
S'a'
g1
(g7
g3
NtRp1542
(dp1543
g10
(dp1544
S'i'
g1
(g7
g3
NtRp1545
(dp1546
g10
(dp1547
sg21
S'wai'
p1548
sbsS'n'
g1
(g7
g3
NtRp1549
(dp1550
g10
(dp1551
S'g'
g1
(g7
g3
NtRp1552
(dp1553
g10
(dp1554
sg21
S'wang'
p1555
sbssg21
S'wan'
p1556
sbssg21
S'wa'
p1557
sbsS'u'
g1
(g7
g3
NtRp1558
(dp1559
g10
(dp1560
sg21
S'wu'
p1561
sbsS'e'
g1
(g7
g3
NtRp1562
(dp1563
g10
(dp1564
S'i'
g1
(g7
g3
NtRp1565
(dp1566
g10
(dp1567
sg21
S'wei'
p1568
sbsS'n'
g1
(g7
g3
NtRp1569
(dp1570
g10
(dp1571
S'g'
g1
(g7
g3
NtRp1572
(dp1573
g10
(dp1574
sg21
S'weng'
p1575
sbssg21
S'wen'
p1576
sbssg21
NsbsS'o'
g1
(g7
g3
NtRp1577
(dp1578
g10
(dp1579
sg21
S'wo'
p1580
sbssg21
NsbsS'y'
g1
(g7
g3
NtRp1581
(dp1582
g10
(dp1583
S'a'
g1
(g7
g3
NtRp1584
(dp1585
g10
(dp1586
S'o'
g1
(g7
g3
NtRp1587
(dp1588
g10
(dp1589
sg21
S'yao'
p1590
sbsS'n'
g1
(g7
g3
NtRp1591
(dp1592
g10
(dp1593
S'g'
g1
(g7
g3
NtRp1594
(dp1595
g10
(dp1596
sg21
S'yang'
p1597
sbssg21
S'yan'
p1598
sbssg21
S'ya'
p1599
sbsS'i'
g1
(g7
g3
NtRp1600
(dp1601
g10
(dp1602
S'n'
g1
(g7
g3
NtRp1603
(dp1604
g10
(dp1605
S'g'
g1
(g7
g3
NtRp1606
(dp1607
g10
(dp1608
sg21
S'ying'
p1609
sbssg21
S'yin'
p1610
sbssg21
S'yi'
p1611
sbsS'e'
g1
(g7
g3
NtRp1612
(dp1613
g10
(dp1614
sg21
S'ye'
p1615
sbsS'u'
g1
(g7
g3
NtRp1616
(dp1617
g10
(dp1618
S'a'
g1
(g7
g3
NtRp1619
(dp1620
g10
(dp1621
S'n'
g1
(g7
g3
NtRp1622
(dp1623
g10
(dp1624
sg21
S'yuan'
p1625
sbssg21
NsbsS'e'
g1
(g7
g3
NtRp1626
(dp1627
g10
(dp1628
sg21
S'yue'
p1629
sbsS'n'
g1
(g7
g3
NtRp1630
(dp1631
g10
(dp1632
sg21
S'yun'
p1633
sbssg21
S'yu'
p1634
sbsS'o'
g1
(g7
g3
NtRp1635
(dp1636
g10
(dp1637
S'u'
g1
(g7
g3
NtRp1638
(dp1639
g10
(dp1640
sg21
S'you'
p1641
sbsS'n'
g1
(g7
g3
NtRp1642
(dp1643
g10
(dp1644
S'g'
g1
(g7
g3
NtRp1645
(dp1646
g10
(dp1647
sg21
S'yong'
p1648
sbssg21
Nsbssg21
S'yo'
p1649
sbssg21
NsbsS'x'
g1
(g7
g3
NtRp1650
(dp1651
g10
(dp1652
S'i'
g1
(g7
g3
NtRp1653
(dp1654
g10
(dp1655
S'a'
g1
(g7
g3
NtRp1656
(dp1657
g10
(dp1658
S'o'
g1
(g7
g3
NtRp1659
(dp1660
g10
(dp1661
sg21
S'xiao'
p1662
sbsS'n'
g1
(g7
g3
NtRp1663
(dp1664
g10
(dp1665
S'g'
g1
(g7
g3
NtRp1666
(dp1667
g10
(dp1668
sg21
S'xiang'
p1669
sbssg21
S'xian'
p1670
sbssg21
S'xia'
p1671
sbsS'u'
g1
(g7
g3
NtRp1672
(dp1673
g10
(dp1674
sg21
S'xiu'
p1675
sbsS'e'
g1
(g7
g3
NtRp1676
(dp1677
g10
(dp1678
sg21
S'xie'
p1679
sbsS'o'
g1
(g7
g3
NtRp1680
(dp1681
g10
(dp1682
S'n'
g1
(g7
g3
NtRp1683
(dp1684
g10
(dp1685
S'g'
g1
(g7
g3
NtRp1686
(dp1687
g10
(dp1688
sg21
S'xiong'
p1689
sbssg21
Nsbssg21
NsbsS'n'
g1
(g7
g3
NtRp1690
(dp1691
g10
(dp1692
S'g'
g1
(g7
g3
NtRp1693
(dp1694
g10
(dp1695
sg21
S'xing'
p1696
sbssg21
S'xin'
p1697
sbssg21
S'xi'
p1698
sbsS'u'
g1
(g7
g3
NtRp1699
(dp1700
g10
(dp1701
S'a'
g1
(g7
g3
NtRp1702
(dp1703
g10
(dp1704
S'n'
g1
(g7
g3
NtRp1705
(dp1706
g10
(dp1707
sg21
S'xuan'
p1708
sbssg21
NsbsS'e'
g1
(g7
g3
NtRp1709
(dp1710
g10
(dp1711
sg21
S'xue'
p1712
sbsS'n'
g1
(g7
g3
NtRp1713
(dp1714
g10
(dp1715
sg21
S'xun'
p1716
sbssg21
S'xu'
p1717
sbssg21
NsbsS'z'
g1
(g7
g3
NtRp1718
(dp1719
g10
(dp1720
S'a'
g1
(g7
g3
NtRp1721
(dp1722
g10
(dp1723
S'i'
g1
(g7
g3
NtRp1724
(dp1725
g10
(dp1726
sg21
S'zai'
p1727
sbsS'o'
g1
(g7
g3
NtRp1728
(dp1729
g10
(dp1730
sg21
S'zao'
p1731
sbsS'n'
g1
(g7
g3
NtRp1732
(dp1733
g10
(dp1734
S'g'
g1
(g7
g3
NtRp1735
(dp1736
g10
(dp1737
sg21
S'zang'
p1738
sbssg21
S'zan'
p1739
sbssg21
S'za'
p1740
sbsS'e'
g1
(g7
g3
NtRp1741
(dp1742
g10
(dp1743
S'i'
g1
(g7
g3
NtRp1744
(dp1745
g10
(dp1746
sg21
S'zei'
p1747
sbsS'n'
g1
(g7
g3
NtRp1748
(dp1749
g10
(dp1750
S'g'
g1
(g7
g3
NtRp1751
(dp1752
g10
(dp1753
sg21
S'zeng'
p1754
sbssg21
S'zen'
p1755
sbssg21
S'ze'
p1756
sbsS'i'
g1
(g7
g3
NtRp1757
(dp1758
g10
(dp1759
sg21
S'zi'
p1760
sbsS'h'
g1
(g7
g3
NtRp1761
(dp1762
g10
(dp1763
S'a'
g1
(g7
g3
NtRp1764
(dp1765
g10
(dp1766
S'i'
g1
(g7
g3
NtRp1767
(dp1768
g10
(dp1769
sg21
S'zhai'
p1770
sbsS'o'
g1
(g7
g3
NtRp1771
(dp1772
g10
(dp1773
sg21
S'zhao'
p1774
sbsS'n'
g1
(g7
g3
NtRp1775
(dp1776
g10
(dp1777
S'g'
g1
(g7
g3
NtRp1778
(dp1779
g10
(dp1780
sg21
S'zhang'
p1781
sbssg21
S'zhan'
p1782
sbssg21
S'zha'
p1783
sbsS'i'
g1
(g7
g3
NtRp1784
(dp1785
g10
(dp1786
sg21
S'zhi'
p1787
sbsS'e'
g1
(g7
g3
NtRp1788
(dp1789
g10
(dp1790
S'n'
g1
(g7
g3
NtRp1791
(dp1792
g10
(dp1793
S'g'
g1
(g7
g3
NtRp1794
(dp1795
g10
(dp1796
sg21
S'zheng'
p1797
sbssg21
S'zhen'
p1798
sbssg21
S'zhe'
p1799
sbsS'u'
g1
(g7
g3
NtRp1800
(dp1801
g10
(dp1802
S'a'
g1
(g7
g3
NtRp1803
(dp1804
g10
(dp1805
S'i'
g1
(g7
g3
NtRp1806
(dp1807
g10
(dp1808
sg21
S'zhuai'
p1809
sbsS'n'
g1
(g7
g3
NtRp1810
(dp1811
g10
(dp1812
S'g'
g1
(g7
g3
NtRp1813
(dp1814
g10
(dp1815
sg21
S'zhuang'
p1816
sbssg21
S'zhuan'
p1817
sbssg21
S'zhua'
p1818
sbsS'i'
g1
(g7
g3
NtRp1819
(dp1820
g10
(dp1821
sg21
S'zhui'
p1822
sbsS'o'
g1
(g7
g3
NtRp1823
(dp1824
g10
(dp1825
sg21
S'zhuo'
p1826
sbsS'n'
g1
(g7
g3
NtRp1827
(dp1828
g10
(dp1829
sg21
S'zhun'
p1830
sbssg21
S'zhu'
p1831
sbsS'o'
g1
(g7
g3
NtRp1832
(dp1833
g10
(dp1834
S'u'
g1
(g7
g3
NtRp1835
(dp1836
g10
(dp1837
sg21
S'zhou'
p1838
sbsS'n'
g1
(g7
g3
NtRp1839
(dp1840
g10
(dp1841
S'g'
g1
(g7
g3
NtRp1842
(dp1843
g10
(dp1844
sg21
S'zhong'
p1845
sbssg21
Nsbssg21
Nsbssg21
NsbsS'o'
g1
(g7
g3
NtRp1846
(dp1847
g10
(dp1848
S'u'
g1
(g7
g3
NtRp1849
(dp1850
g10
(dp1851
sg21
S'zou'
p1852
sbsS'n'
g1
(g7
g3
NtRp1853
(dp1854
g10
(dp1855
S'g'
g1
(g7
g3
NtRp1856
(dp1857
g10
(dp1858
sg21
S'zong'
p1859
sbssg21
Nsbssg21
NsbsS'u'
g1
(g7
g3
NtRp1860
(dp1861
g10
(dp1862
S'a'
g1
(g7
g3
NtRp1863
(dp1864
g10
(dp1865
S'n'
g1
(g7
g3
NtRp1866
(dp1867
g10
(dp1868
sg21
S'zuan'
p1869
sbssg21
NsbsS'i'
g1
(g7
g3
NtRp1870
(dp1871
g10
(dp1872
sg21
S'zui'
p1873
sbsS'o'
g1
(g7
g3
NtRp1874
(dp1875
g10
(dp1876
sg21
S'zuo'
p1877
sbsS'n'
g1
(g7
g3
NtRp1878
(dp1879
g10
(dp1880
sg21
S'zun'
p1881
sbssg21
S'zu'
p1882
sbssg21
Nsbssg21
Nsbsb.